	.file	"GPU.cpp"
	.intel_syntax noprefix
# GNU C++17 (GCC) version 11.2.1 20210728 (Red Hat 11.2.1-1) (x86_64-redhat-linux)
#	compiled by GNU C version 11.2.1 20210728 (Red Hat 11.2.1-1), GMP version 6.2.0, MPFR version 4.1.0-p13, MPC version 1.2.1, isl version none
# GGC heuristics: --param ggc-min-expand=100 --param ggc-min-heapsize=131072
# options passed: -masm=intel -mtune=generic -march=x86-64 -g
	.text
.Ltext0:
	.file 0 "/home/antonio/CLionProjects/ohBoi/src/Core/Graphics" "GPU.cpp"
	.weak	_ZSt19piecewise_construct
	.section	.rodata._ZSt19piecewise_construct,"aG",@progbits,_ZSt19piecewise_construct,comdat
	.type	_ZSt19piecewise_construct, @gnu_unique_object
	.size	_ZSt19piecewise_construct, 1
_ZSt19piecewise_construct:
	.zero	1
	.section	.text._ZSt4__lgl,"axG",@progbits,_ZSt4__lgl,comdat
	.weak	_ZSt4__lgl
	.type	_ZSt4__lgl, @function
_ZSt4__lgl:
.LFB324:
	.file 1 "/usr/include/c++/11/bits/stl_algobase.h"
	.loc 1 1515 3
	.cfi_startproc
	push	rbp	#
	.cfi_def_cfa_offset 16
	.cfi_offset 6, -16
	mov	rbp, rsp	#,
	.cfi_def_cfa_register 6
	mov	QWORD PTR [rbp-8], rdi	# __n, __n
# /usr/include/c++/11/bits/stl_algobase.h:1515:   { return (int)sizeof(long) * __CHAR_BIT__ - 1 - __builtin_clzl(__n); }
	.loc 1 1515 65
	mov	rax, QWORD PTR [rbp-8]	# __n.67_1, __n
	bsr	rax, rax	# tmp87, __n.67_1
	xor	rax, 63	# tmp87,
	mov	edx, eax	# _2, tmp87
# /usr/include/c++/11/bits/stl_algobase.h:1515:   { return (int)sizeof(long) * __CHAR_BIT__ - 1 - __builtin_clzl(__n); }
	.loc 1 1515 49
	mov	eax, 63	# tmp88,
	sub	eax, edx	# _3, _2
# /usr/include/c++/11/bits/stl_algobase.h:1515:   { return (int)sizeof(long) * __CHAR_BIT__ - 1 - __builtin_clzl(__n); }
	.loc 1 1515 69
	cdqe
# /usr/include/c++/11/bits/stl_algobase.h:1515:   { return (int)sizeof(long) * __CHAR_BIT__ - 1 - __builtin_clzl(__n); }
	.loc 1 1515 72
	pop	rbp	#
	.cfi_def_cfa 7, 8
	ret	
	.cfi_endproc
.LFE324:
	.size	_ZSt4__lgl, .-_ZSt4__lgl
	.section	.text._ZNSt11char_traitsIcE6lengthEPKc,"axG",@progbits,_ZNSt11char_traitsIcE6lengthEPKc,comdat
	.weak	_ZNSt11char_traitsIcE6lengthEPKc
	.type	_ZNSt11char_traitsIcE6lengthEPKc, @function
_ZNSt11char_traitsIcE6lengthEPKc:
.LFB381:
	.file 2 "/usr/include/c++/11/bits/char_traits.h"
	.loc 2 365 7
	.cfi_startproc
	push	rbp	#
	.cfi_def_cfa_offset 16
	.cfi_offset 6, -16
	mov	rbp, rsp	#,
	.cfi_def_cfa_register 6
	sub	rsp, 32	#,
	mov	QWORD PTR [rbp-24], rdi	# __s, __s
	mov	rax, QWORD PTR [rbp-24]	# tmp85, __s
	mov	QWORD PTR [rbp-8], rax	# __s, tmp85
.LBB26:
.LBB27:
# /usr/include/c++/11/bits/char_traits.h:262:       return __builtin_is_constant_evaluated();
	.loc 2 262 46
	mov	eax, 0	# D.184448,
.LBE27:
.LBE26:
# /usr/include/c++/11/bits/char_traits.h:368: 	if (__constant_string_p(__s))
	.loc 2 368 2
	test	al, al	# D.184448
	je	.L5	#,
# /usr/include/c++/11/bits/char_traits.h:369: 	  return __gnu_cxx::char_traits<char_type>::length(__s);
	.loc 2 369 52
	mov	rax, QWORD PTR [rbp-24]	# tmp86, __s
	mov	rdi, rax	#, tmp86
	call	_ZN9__gnu_cxx11char_traitsIcE6lengthEPKc	#
# /usr/include/c++/11/bits/char_traits.h:369: 	  return __gnu_cxx::char_traits<char_type>::length(__s);
	.loc 2 369 56
	jmp	.L6	#
.L5:
# /usr/include/c++/11/bits/char_traits.h:371: 	return __builtin_strlen(__s);
	.loc 2 371 25
	mov	rax, QWORD PTR [rbp-24]	# tmp88, __s
	mov	rdi, rax	#, tmp88
	call	strlen	#
# /usr/include/c++/11/bits/char_traits.h:371: 	return __builtin_strlen(__s);
	.loc 2 371 29
	nop	
.L6:
# /usr/include/c++/11/bits/char_traits.h:372:       }
	.loc 2 372 7
	leave	
	.cfi_def_cfa 7, 8
	ret	
	.cfi_endproc
.LFE381:
	.size	_ZNSt11char_traitsIcE6lengthEPKc, .-_ZNSt11char_traitsIcE6lengthEPKc
	.section	.text._ZnwmPv,"axG",@progbits,_ZnwmPv,comdat
	.weak	_ZnwmPv
	.type	_ZnwmPv, @function
_ZnwmPv:
.LFB445:
	.file 3 "/usr/include/c++/11/new"
	.loc 3 175 1
	.cfi_startproc
	push	rbp	#
	.cfi_def_cfa_offset 16
	.cfi_offset 6, -16
	mov	rbp, rsp	#,
	.cfi_def_cfa_register 6
	mov	QWORD PTR [rbp-8], rdi	# D.12968, D.12968
	mov	QWORD PTR [rbp-16], rsi	# __p, __p
# /usr/include/c++/11/new:175: { return __p; }
	.loc 3 175 10
	mov	rax, QWORD PTR [rbp-16]	# _2, __p
# /usr/include/c++/11/new:175: { return __p; }
	.loc 3 175 15
	pop	rbp	#
	.cfi_def_cfa 7, 8
	ret	
	.cfi_endproc
.LFE445:
	.size	_ZnwmPv, .-_ZnwmPv
	.section	.text._ZdlPvS_,"axG",@progbits,_ZdlPvS_,comdat
	.weak	_ZdlPvS_
	.type	_ZdlPvS_, @function
_ZdlPvS_:
.LFB447:
	.loc 3 180 67
	.cfi_startproc
	push	rbp	#
	.cfi_def_cfa_offset 16
	.cfi_offset 6, -16
	mov	rbp, rsp	#,
	.cfi_def_cfa_register 6
	mov	QWORD PTR [rbp-8], rdi	# D.12976, D.12976
	mov	QWORD PTR [rbp-16], rsi	# D.12977, D.12977
# /usr/include/c++/11/new:180: inline void operator delete  (void*, void*) _GLIBCXX_USE_NOEXCEPT { }
	.loc 3 180 69
	nop	
	pop	rbp	#
	.cfi_def_cfa 7, 8
	ret	
	.cfi_endproc
.LFE447:
	.size	_ZdlPvS_, .-_ZdlPvS_
	.section	.rodata
	.align 4
	.type	_ZN9__gnu_cxxL21__default_lock_policyE, @object
	.size	_ZN9__gnu_cxxL21__default_lock_policyE, 4
_ZN9__gnu_cxxL21__default_lock_policyE:
	.long	2
	.type	_ZN6__pstl9execution2v1L3seqE, @object
	.size	_ZN6__pstl9execution2v1L3seqE, 1
_ZN6__pstl9execution2v1L3seqE:
	.zero	1
	.type	_ZN6__pstl9execution2v1L3parE, @object
	.size	_ZN6__pstl9execution2v1L3parE, 1
_ZN6__pstl9execution2v1L3parE:
	.zero	1
	.type	_ZN6__pstl9execution2v1L9par_unseqE, @object
	.size	_ZN6__pstl9execution2v1L9par_unseqE, 1
_ZN6__pstl9execution2v1L9par_unseqE:
	.zero	1
	.type	_ZN6__pstl9execution2v1L5unseqE, @object
	.size	_ZN6__pstl9execution2v1L5unseqE, 1
_ZN6__pstl9execution2v1L5unseqE:
	.zero	1
	.section	.text._ZStanSt13_Ios_FmtflagsS_,"axG",@progbits,_ZStanSt13_Ios_FmtflagsS_,comdat
	.weak	_ZStanSt13_Ios_FmtflagsS_
	.type	_ZStanSt13_Ios_FmtflagsS_, @function
_ZStanSt13_Ios_FmtflagsS_:
.LFB2966:
	.file 4 "/usr/include/c++/11/bits/ios_base.h"
	.loc 4 84 3
	.cfi_startproc
	push	rbp	#
	.cfi_def_cfa_offset 16
	.cfi_offset 6, -16
	mov	rbp, rsp	#,
	.cfi_def_cfa_register 6
	mov	DWORD PTR [rbp-4], edi	# __a, __a
	mov	DWORD PTR [rbp-8], esi	# __b, __b
# /usr/include/c++/11/bits/ios_base.h:84:   { return _Ios_Fmtflags(static_cast<int>(__a) & static_cast<int>(__b)); }
	.loc 4 84 71
	mov	eax, DWORD PTR [rbp-4]	# tmp84, __a
	and	eax, DWORD PTR [rbp-8]	# _3, __b
# /usr/include/c++/11/bits/ios_base.h:84:   { return _Ios_Fmtflags(static_cast<int>(__a) & static_cast<int>(__b)); }
	.loc 4 84 74
	pop	rbp	#
	.cfi_def_cfa 7, 8
	ret	
	.cfi_endproc
.LFE2966:
	.size	_ZStanSt13_Ios_FmtflagsS_, .-_ZStanSt13_Ios_FmtflagsS_
	.section	.text._ZStorSt13_Ios_FmtflagsS_,"axG",@progbits,_ZStorSt13_Ios_FmtflagsS_,comdat
	.weak	_ZStorSt13_Ios_FmtflagsS_
	.type	_ZStorSt13_Ios_FmtflagsS_, @function
_ZStorSt13_Ios_FmtflagsS_:
.LFB2967:
	.loc 4 88 3
	.cfi_startproc
	push	rbp	#
	.cfi_def_cfa_offset 16
	.cfi_offset 6, -16
	mov	rbp, rsp	#,
	.cfi_def_cfa_register 6
	mov	DWORD PTR [rbp-4], edi	# __a, __a
	mov	DWORD PTR [rbp-8], esi	# __b, __b
# /usr/include/c++/11/bits/ios_base.h:88:   { return _Ios_Fmtflags(static_cast<int>(__a) | static_cast<int>(__b)); }
	.loc 4 88 71
	mov	eax, DWORD PTR [rbp-4]	# tmp84, __a
	or	eax, DWORD PTR [rbp-8]	# _3, __b
# /usr/include/c++/11/bits/ios_base.h:88:   { return _Ios_Fmtflags(static_cast<int>(__a) | static_cast<int>(__b)); }
	.loc 4 88 74
	pop	rbp	#
	.cfi_def_cfa 7, 8
	ret	
	.cfi_endproc
.LFE2967:
	.size	_ZStorSt13_Ios_FmtflagsS_, .-_ZStorSt13_Ios_FmtflagsS_
	.section	.text._ZStcoSt13_Ios_Fmtflags,"axG",@progbits,_ZStcoSt13_Ios_Fmtflags,comdat
	.weak	_ZStcoSt13_Ios_Fmtflags
	.type	_ZStcoSt13_Ios_Fmtflags, @function
_ZStcoSt13_Ios_Fmtflags:
.LFB2969:
	.loc 4 96 3
	.cfi_startproc
	push	rbp	#
	.cfi_def_cfa_offset 16
	.cfi_offset 6, -16
	mov	rbp, rsp	#,
	.cfi_def_cfa_register 6
	mov	DWORD PTR [rbp-4], edi	# __a, __a
# /usr/include/c++/11/bits/ios_base.h:96:   { return _Ios_Fmtflags(~static_cast<int>(__a)); }
	.loc 4 96 48
	mov	eax, DWORD PTR [rbp-4]	# tmp84, __a
	not	eax	# _2
# /usr/include/c++/11/bits/ios_base.h:96:   { return _Ios_Fmtflags(~static_cast<int>(__a)); }
	.loc 4 96 51
	pop	rbp	#
	.cfi_def_cfa 7, 8
	ret	
	.cfi_endproc
.LFE2969:
	.size	_ZStcoSt13_Ios_Fmtflags, .-_ZStcoSt13_Ios_Fmtflags
	.section	.text._ZStoRRSt13_Ios_FmtflagsS_,"axG",@progbits,_ZStoRRSt13_Ios_FmtflagsS_,comdat
	.weak	_ZStoRRSt13_Ios_FmtflagsS_
	.type	_ZStoRRSt13_Ios_FmtflagsS_, @function
_ZStoRRSt13_Ios_FmtflagsS_:
.LFB2970:
	.loc 4 100 3
	.cfi_startproc
	push	rbp	#
	.cfi_def_cfa_offset 16
	.cfi_offset 6, -16
	mov	rbp, rsp	#,
	.cfi_def_cfa_register 6
	sub	rsp, 16	#,
	mov	QWORD PTR [rbp-8], rdi	# __a, __a
	mov	DWORD PTR [rbp-12], esi	# __b, __b
# /usr/include/c++/11/bits/ios_base.h:100:   { return __a = __a | __b; }
	.loc 4 100 22
	mov	rax, QWORD PTR [rbp-8]	# tmp86, __a
	mov	eax, DWORD PTR [rax]	# _1, *__a_4(D)
	mov	edx, DWORD PTR [rbp-12]	# tmp87, __b
	mov	esi, edx	#, tmp87
	mov	edi, eax	#, _1
	call	_ZStorSt13_Ios_FmtflagsS_	#
# /usr/include/c++/11/bits/ios_base.h:100:   { return __a = __a | __b; }
	.loc 4 100 16
	mov	rdx, QWORD PTR [rbp-8]	# tmp88, __a
	mov	DWORD PTR [rdx], eax	# *__a_4(D), _2
# /usr/include/c++/11/bits/ios_base.h:100:   { return __a = __a | __b; }
	.loc 4 100 24
	mov	rax, QWORD PTR [rbp-8]	# _8, __a
# /usr/include/c++/11/bits/ios_base.h:100:   { return __a = __a | __b; }
	.loc 4 100 29
	leave	
	.cfi_def_cfa 7, 8
	ret	
	.cfi_endproc
.LFE2970:
	.size	_ZStoRRSt13_Ios_FmtflagsS_, .-_ZStoRRSt13_Ios_FmtflagsS_
	.section	.text._ZStaNRSt13_Ios_FmtflagsS_,"axG",@progbits,_ZStaNRSt13_Ios_FmtflagsS_,comdat
	.weak	_ZStaNRSt13_Ios_FmtflagsS_
	.type	_ZStaNRSt13_Ios_FmtflagsS_, @function
_ZStaNRSt13_Ios_FmtflagsS_:
.LFB2971:
	.loc 4 104 3
	.cfi_startproc
	push	rbp	#
	.cfi_def_cfa_offset 16
	.cfi_offset 6, -16
	mov	rbp, rsp	#,
	.cfi_def_cfa_register 6
	sub	rsp, 16	#,
	mov	QWORD PTR [rbp-8], rdi	# __a, __a
	mov	DWORD PTR [rbp-12], esi	# __b, __b
# /usr/include/c++/11/bits/ios_base.h:104:   { return __a = __a & __b; }
	.loc 4 104 22
	mov	rax, QWORD PTR [rbp-8]	# tmp86, __a
	mov	eax, DWORD PTR [rax]	# _1, *__a_4(D)
	mov	edx, DWORD PTR [rbp-12]	# tmp87, __b
	mov	esi, edx	#, tmp87
	mov	edi, eax	#, _1
	call	_ZStanSt13_Ios_FmtflagsS_	#
# /usr/include/c++/11/bits/ios_base.h:104:   { return __a = __a & __b; }
	.loc 4 104 16
	mov	rdx, QWORD PTR [rbp-8]	# tmp88, __a
	mov	DWORD PTR [rdx], eax	# *__a_4(D), _2
# /usr/include/c++/11/bits/ios_base.h:104:   { return __a = __a & __b; }
	.loc 4 104 24
	mov	rax, QWORD PTR [rbp-8]	# _8, __a
# /usr/include/c++/11/bits/ios_base.h:104:   { return __a = __a & __b; }
	.loc 4 104 29
	leave	
	.cfi_def_cfa 7, 8
	ret	
	.cfi_endproc
.LFE2971:
	.size	_ZStaNRSt13_Ios_FmtflagsS_, .-_ZStaNRSt13_Ios_FmtflagsS_
	.section	.text._ZNSt8ios_base4setfESt13_Ios_FmtflagsS0_,"axG",@progbits,_ZNSt8ios_base4setfESt13_Ios_FmtflagsS0_,comdat
	.align 2
	.weak	_ZNSt8ios_base4setfESt13_Ios_FmtflagsS0_
	.type	_ZNSt8ios_base4setfESt13_Ios_FmtflagsS0_, @function
_ZNSt8ios_base4setfESt13_Ios_FmtflagsS0_:
.LFB3000:
	.loc 4 693 5
	.cfi_startproc
	push	rbp	#
	.cfi_def_cfa_offset 16
	.cfi_offset 6, -16
	mov	rbp, rsp	#,
	.cfi_def_cfa_register 6
	sub	rsp, 32	#,
	mov	QWORD PTR [rbp-24], rdi	# this, this
	mov	DWORD PTR [rbp-28], esi	# __fmtfl, __fmtfl
	mov	DWORD PTR [rbp-32], edx	# __mask, __mask
# /usr/include/c++/11/bits/ios_base.h:695:       fmtflags __old = _M_flags;
	.loc 4 695 16
	mov	rax, QWORD PTR [rbp-24]	# tmp88, this
	mov	eax, DWORD PTR [rax+24]	# tmp89, this_6(D)->_M_flags
	mov	DWORD PTR [rbp-4], eax	# __old, tmp89
# /usr/include/c++/11/bits/ios_base.h:696:       _M_flags &= ~__mask;
	.loc 4 696 20
	mov	eax, DWORD PTR [rbp-32]	# tmp90, __mask
	mov	edi, eax	#, tmp90
	call	_ZStcoSt13_Ios_Fmtflags	#
	mov	edx, eax	# _1,
# /usr/include/c++/11/bits/ios_base.h:696:       _M_flags &= ~__mask;
	.loc 4 696 7
	mov	rax, QWORD PTR [rbp-24]	# tmp91, this
	add	rax, 24	# _2,
# /usr/include/c++/11/bits/ios_base.h:696:       _M_flags &= ~__mask;
	.loc 4 696 20
	mov	esi, edx	#, _1
	mov	rdi, rax	#, _2
	call	_ZStaNRSt13_Ios_FmtflagsS_	#
# /usr/include/c++/11/bits/ios_base.h:697:       _M_flags |= (__fmtfl & __mask);
	.loc 4 697 36
	mov	edx, DWORD PTR [rbp-32]	# tmp92, __mask
	mov	eax, DWORD PTR [rbp-28]	# tmp93, __fmtfl
	mov	esi, edx	#, tmp92
	mov	edi, eax	#, tmp93
	call	_ZStanSt13_Ios_FmtflagsS_	#
	mov	edx, eax	# _3,
# /usr/include/c++/11/bits/ios_base.h:697:       _M_flags |= (__fmtfl & __mask);
	.loc 4 697 7
	mov	rax, QWORD PTR [rbp-24]	# tmp94, this
	add	rax, 24	# _4,
# /usr/include/c++/11/bits/ios_base.h:697:       _M_flags |= (__fmtfl & __mask);
	.loc 4 697 36
	mov	esi, edx	#, _3
	mov	rdi, rax	#, _4
	call	_ZStoRRSt13_Ios_FmtflagsS_	#
# /usr/include/c++/11/bits/ios_base.h:698:       return __old;
	.loc 4 698 14
	mov	eax, DWORD PTR [rbp-4]	# _14, __old
# /usr/include/c++/11/bits/ios_base.h:699:     }
	.loc 4 699 5
	leave	
	.cfi_def_cfa 7, 8
	ret	
	.cfi_endproc
.LFE3000:
	.size	_ZNSt8ios_base4setfESt13_Ios_FmtflagsS0_, .-_ZNSt8ios_base4setfESt13_Ios_FmtflagsS0_
	.section	.text._ZSt3hexRSt8ios_base,"axG",@progbits,_ZSt3hexRSt8ios_base,comdat
	.weak	_ZSt3hexRSt8ios_base
	.type	_ZSt3hexRSt8ios_base, @function
_ZSt3hexRSt8ios_base:
.LFB3028:
	.loc 4 1055 3
	.cfi_startproc
	push	rbp	#
	.cfi_def_cfa_offset 16
	.cfi_offset 6, -16
	mov	rbp, rsp	#,
	.cfi_def_cfa_register 6
	sub	rsp, 16	#,
	mov	QWORD PTR [rbp-8], rdi	# __base, __base
# /usr/include/c++/11/bits/ios_base.h:1056:     __base.setf(ios_base::hex, ios_base::basefield);
	.loc 4 1056 16
	mov	rax, QWORD PTR [rbp-8]	# tmp84, __base
	mov	edx, 74	#,
	mov	esi, 8	#,
	mov	rdi, rax	#, tmp84
	call	_ZNSt8ios_base4setfESt13_Ios_FmtflagsS0_	#
# /usr/include/c++/11/bits/ios_base.h:1057:     return __base;
	.loc 4 1057 12
	mov	rax, QWORD PTR [rbp-8]	# _4, __base
# /usr/include/c++/11/bits/ios_base.h:1058:   }
	.loc 4 1058 3
	leave	
	.cfi_def_cfa 7, 8
	ret	
	.cfi_endproc
.LFE3028:
	.size	_ZSt3hexRSt8ios_base, .-_ZSt3hexRSt8ios_base
	.local	_ZStL8__ioinit
	.comm	_ZStL8__ioinit,1,1
	.section	.text._ZSt16__deque_buf_sizem,"axG",@progbits,_ZSt16__deque_buf_sizem,comdat
	.weak	_ZSt16__deque_buf_sizem
	.type	_ZSt16__deque_buf_sizem, @function
_ZSt16__deque_buf_sizem:
.LFB3379:
	.file 5 "/usr/include/c++/11/bits/stl_deque.h"
	.loc 5 97 3
	.cfi_startproc
	push	rbp	#
	.cfi_def_cfa_offset 16
	.cfi_offset 6, -16
	mov	rbp, rsp	#,
	.cfi_def_cfa_register 6
	mov	QWORD PTR [rbp-8], rdi	# __size, __size
# /usr/include/c++/11/bits/stl_deque.h:98: 	    ? size_t(_GLIBCXX_DEQUE_BUF_SIZE / __size) : size_t(1)); }
	.loc 5 98 6
	cmp	QWORD PTR [rbp-8], 511	# __size,
	ja	.L25	#,
# /usr/include/c++/11/bits/stl_deque.h:98: 	    ? size_t(_GLIBCXX_DEQUE_BUF_SIZE / __size) : size_t(1)); }
	.loc 5 98 6 is_stmt 0 discriminator 1
	mov	eax, 512	# tmp86,
	mov	edx, 0	# tmp85,
	div	QWORD PTR [rbp-8]	# __size
# /usr/include/c++/11/bits/stl_deque.h:98: 	    ? size_t(_GLIBCXX_DEQUE_BUF_SIZE / __size) : size_t(1)); }
	.loc 5 98 60 is_stmt 1 discriminator 1
	jmp	.L27	#
.L25:
# /usr/include/c++/11/bits/stl_deque.h:98: 	    ? size_t(_GLIBCXX_DEQUE_BUF_SIZE / __size) : size_t(1)); }
	.loc 5 98 6 discriminator 2
	mov	eax, 1	# iftmp.3_1,
.L27:
# /usr/include/c++/11/bits/stl_deque.h:98: 	    ? size_t(_GLIBCXX_DEQUE_BUF_SIZE / __size) : size_t(1)); }
	.loc 5 98 63 discriminator 5
	pop	rbp	#
	.cfi_def_cfa 7, 8
	ret	
	.cfi_endproc
.LFE3379:
	.size	_ZSt16__deque_buf_sizem, .-_ZSt16__deque_buf_sizem
	.section	.text._ZNSt12_Vector_baseIhSaIhEE12_Vector_implD2Ev,"axG",@progbits,_ZNSt12_Vector_baseIhSaIhEE12_Vector_implD5Ev,comdat
	.align 2
	.weak	_ZNSt12_Vector_baseIhSaIhEE12_Vector_implD2Ev
	.type	_ZNSt12_Vector_baseIhSaIhEE12_Vector_implD2Ev, @function
_ZNSt12_Vector_baseIhSaIhEE12_Vector_implD2Ev:
.LFB3944:
	.file 6 "/usr/include/c++/11/bits/stl_vector.h"
	.loc 6 128 14
	.cfi_startproc
	push	rbp	#
	.cfi_def_cfa_offset 16
	.cfi_offset 6, -16
	mov	rbp, rsp	#,
	.cfi_def_cfa_register 6
	sub	rsp, 16	#,
	mov	QWORD PTR [rbp-8], rdi	# this, this
.LBB28:
# /usr/include/c++/11/bits/stl_vector.h:128:       struct _Vector_impl
	.loc 6 128 14
	mov	rax, QWORD PTR [rbp-8]	# tmp82, this
	mov	rdi, rax	#, tmp82
	call	_ZNSaIhED2Ev	#
.LBE28:
	nop	
	leave	
	.cfi_def_cfa 7, 8
	ret	
	.cfi_endproc
.LFE3944:
	.size	_ZNSt12_Vector_baseIhSaIhEE12_Vector_implD2Ev, .-_ZNSt12_Vector_baseIhSaIhEE12_Vector_implD2Ev
	.weak	_ZNSt12_Vector_baseIhSaIhEE12_Vector_implD1Ev
	.set	_ZNSt12_Vector_baseIhSaIhEE12_Vector_implD1Ev,_ZNSt12_Vector_baseIhSaIhEE12_Vector_implD2Ev
	.section	.text._ZNSt12_Vector_baseIhSaIhEEC2Ev,"axG",@progbits,_ZNSt12_Vector_baseIhSaIhEEC5Ev,comdat
	.align 2
	.weak	_ZNSt12_Vector_baseIhSaIhEEC2Ev
	.type	_ZNSt12_Vector_baseIhSaIhEEC2Ev, @function
_ZNSt12_Vector_baseIhSaIhEEC2Ev:
.LFB3946:
	.loc 6 288 7
	.cfi_startproc
	push	rbp	#
	.cfi_def_cfa_offset 16
	.cfi_offset 6, -16
	mov	rbp, rsp	#,
	.cfi_def_cfa_register 6
	sub	rsp, 16	#,
	mov	QWORD PTR [rbp-8], rdi	# this, this
.LBB29:
# /usr/include/c++/11/bits/stl_vector.h:288:       _Vector_base() = default;
	.loc 6 288 7
	mov	rax, QWORD PTR [rbp-8]	# _1, this
	mov	rdi, rax	#, _1
	call	_ZNSt12_Vector_baseIhSaIhEE12_Vector_implC1Ev	#
.LBE29:
	nop	
	leave	
	.cfi_def_cfa 7, 8
	ret	
	.cfi_endproc
.LFE3946:
	.size	_ZNSt12_Vector_baseIhSaIhEEC2Ev, .-_ZNSt12_Vector_baseIhSaIhEEC2Ev
	.weak	_ZNSt12_Vector_baseIhSaIhEEC1Ev
	.set	_ZNSt12_Vector_baseIhSaIhEEC1Ev,_ZNSt12_Vector_baseIhSaIhEEC2Ev
	.section	.text._ZNSt6vectorIhSaIhEEC2Ev,"axG",@progbits,_ZNSt6vectorIhSaIhEEC5Ev,comdat
	.align 2
	.weak	_ZNSt6vectorIhSaIhEEC2Ev
	.type	_ZNSt6vectorIhSaIhEEC2Ev, @function
_ZNSt6vectorIhSaIhEEC2Ev:
.LFB3948:
	.loc 6 487 7
	.cfi_startproc
	push	rbp	#
	.cfi_def_cfa_offset 16
	.cfi_offset 6, -16
	mov	rbp, rsp	#,
	.cfi_def_cfa_register 6
	sub	rsp, 16	#,
	mov	QWORD PTR [rbp-8], rdi	# this, this
.LBB30:
# /usr/include/c++/11/bits/stl_vector.h:487:       vector() = default;
	.loc 6 487 7
	mov	rax, QWORD PTR [rbp-8]	# _1, this
	mov	rdi, rax	#, _1
	call	_ZNSt12_Vector_baseIhSaIhEEC2Ev	#
.LBE30:
	nop	
	leave	
	.cfi_def_cfa 7, 8
	ret	
	.cfi_endproc
.LFE3948:
	.size	_ZNSt6vectorIhSaIhEEC2Ev, .-_ZNSt6vectorIhSaIhEEC2Ev
	.weak	_ZNSt6vectorIhSaIhEEC1Ev
	.set	_ZNSt6vectorIhSaIhEEC1Ev,_ZNSt6vectorIhSaIhEEC2Ev
	.section	.text._ZN2gb6memory13Address_spaceC2Ej,"axG",@progbits,_ZN2gb6memory13Address_spaceC5Ej,comdat
	.align 2
	.weak	_ZN2gb6memory13Address_spaceC2Ej
	.type	_ZN2gb6memory13Address_spaceC2Ej, @function
_ZN2gb6memory13Address_spaceC2Ej:
.LFB3950:
	.file 7 "../../../inc/Core/Memory/Address_space.h"
	.loc 7 16 18
	.cfi_startproc
	.cfi_personality 0x3,__gxx_personality_v0
	.cfi_lsda 0x3,.LLSDA3950
	push	rbp	#
	.cfi_def_cfa_offset 16
	.cfi_offset 6, -16
	mov	rbp, rsp	#,
	.cfi_def_cfa_register 6
	push	rbx	#
	sub	rsp, 24	#,
	.cfi_offset 3, -24
	mov	QWORD PTR [rbp-24], rdi	# this, this
	mov	DWORD PTR [rbp-28], esi	# space_size, space_size
.LBB31:
# ../../../inc/Core/Memory/Address_space.h:16:         explicit Address_space(unsigned int space_size) : size_ {space_size} {
	.loc 7 16 76
	mov	edx, OFFSET FLAT:_ZTVN2gb6memory13Address_spaceE+16	# _1,
	mov	rax, QWORD PTR [rbp-24]	# tmp88, this
	mov	QWORD PTR [rax], rdx	# this_7(D)->_vptr.Address_space, _1
	mov	rax, QWORD PTR [rbp-24]	# tmp89, this
	add	rax, 8	# _2,
	mov	rdi, rax	#, _2
	call	_ZNSt6vectorIhSaIhEEC1Ev	#
# ../../../inc/Core/Memory/Address_space.h:16:         explicit Address_space(unsigned int space_size) : size_ {space_size} {
	.loc 7 16 59
	mov	rax, QWORD PTR [rbp-24]	# tmp90, this
	mov	edx, DWORD PTR [rbp-28]	# tmp91, space_size
	mov	DWORD PTR [rax+32], edx	# this_7(D)->size_, tmp91
# ../../../inc/Core/Memory/Address_space.h:17:             m_.reserve(space_size);
	.loc 7 17 23
	mov	rax, QWORD PTR [rbp-24]	# tmp92, this
	lea	rdx, [rax+8]	# _3,
	mov	eax, DWORD PTR [rbp-28]	# _4, space_size
	mov	rsi, rax	#, _4
	mov	rdi, rdx	#, _3
.LEHB0:
	call	_ZNSt6vectorIhSaIhEE7reserveEm	#
.LEHE0:
.LBE31:
# ../../../inc/Core/Memory/Address_space.h:18:         }
	.loc 7 18 9
	jmp	.L34	#
.L33:
.LBB32:
	mov	rbx, rax	# tmp94,
	mov	rax, QWORD PTR [rbp-24]	# tmp93, this
	add	rax, 8	# _5,
	mov	rdi, rax	#, _5
	call	_ZNSt6vectorIhSaIhEED1Ev	#
	mov	rax, rbx	# D.184492, tmp94
	mov	rdi, rax	#, D.184492
.LEHB1:
	call	_Unwind_Resume	#
.LEHE1:
.L34:
.LBE32:
	mov	rbx, QWORD PTR [rbp-8]	#,
	leave	
	.cfi_def_cfa 7, 8
	ret	
	.cfi_endproc
.LFE3950:
	.globl	__gxx_personality_v0
	.section	.gcc_except_table._ZN2gb6memory13Address_spaceC2Ej,"aG",@progbits,_ZN2gb6memory13Address_spaceC5Ej,comdat
.LLSDA3950:
	.byte	0xff
	.byte	0xff
	.byte	0x1
	.uleb128 .LLSDACSE3950-.LLSDACSB3950
.LLSDACSB3950:
	.uleb128 .LEHB0-.LFB3950
	.uleb128 .LEHE0-.LEHB0
	.uleb128 .L33-.LFB3950
	.uleb128 0
	.uleb128 .LEHB1-.LFB3950
	.uleb128 .LEHE1-.LEHB1
	.uleb128 0
	.uleb128 0
.LLSDACSE3950:
	.section	.text._ZN2gb6memory13Address_spaceC2Ej,"axG",@progbits,_ZN2gb6memory13Address_spaceC5Ej,comdat
	.size	_ZN2gb6memory13Address_spaceC2Ej, .-_ZN2gb6memory13Address_spaceC2Ej
	.weak	_ZN2gb6memory13Address_spaceC1Ej
	.set	_ZN2gb6memory13Address_spaceC1Ej,_ZN2gb6memory13Address_spaceC2Ej
	.section	.text._ZN2gb6memory13Address_space4readEj,"axG",@progbits,_ZN2gb6memory13Address_space4readEj,comdat
	.align 2
	.weak	_ZN2gb6memory13Address_space4readEj
	.type	_ZN2gb6memory13Address_space4readEj, @function
_ZN2gb6memory13Address_space4readEj:
.LFB3952:
	.loc 7 21 25
	.cfi_startproc
	push	rbp	#
	.cfi_def_cfa_offset 16
	.cfi_offset 6, -16
	mov	rbp, rsp	#,
	.cfi_def_cfa_register 6
	sub	rsp, 16	#,
	mov	QWORD PTR [rbp-8], rdi	# this, this
	mov	DWORD PTR [rbp-12], esi	# address, address
# ../../../inc/Core/Memory/Address_space.h:22:             return m_[address];
	.loc 7 22 30
	mov	rax, QWORD PTR [rbp-8]	# tmp87, this
	lea	rdx, [rax+8]	# _1,
	mov	eax, DWORD PTR [rbp-12]	# _2, address
	mov	rsi, rax	#, _2
	mov	rdi, rdx	#, _1
	call	_ZNSt6vectorIhSaIhEEixEm	#
	movzx	eax, BYTE PTR [rax]	# _8, *_3
# ../../../inc/Core/Memory/Address_space.h:23:         }
	.loc 7 23 9
	leave	
	.cfi_def_cfa 7, 8
	ret	
	.cfi_endproc
.LFE3952:
	.size	_ZN2gb6memory13Address_space4readEj, .-_ZN2gb6memory13Address_space4readEj
	.section	.text._ZN2gb6memory13Address_space5writeEjh,"axG",@progbits,_ZN2gb6memory13Address_space5writeEjh,comdat
	.align 2
	.weak	_ZN2gb6memory13Address_space5writeEjh
	.type	_ZN2gb6memory13Address_space5writeEjh, @function
_ZN2gb6memory13Address_space5writeEjh:
.LFB3953:
	.loc 7 24 22
	.cfi_startproc
	push	rbp	#
	.cfi_def_cfa_offset 16
	.cfi_offset 6, -16
	mov	rbp, rsp	#,
	.cfi_def_cfa_register 6
	push	rbx	#
	sub	rsp, 24	#,
	.cfi_offset 3, -24
	mov	QWORD PTR [rbp-24], rdi	# this, this
	mov	DWORD PTR [rbp-28], esi	# address, address
	mov	eax, edx	# tmp86, value
	mov	BYTE PTR [rbp-32], al	# value, tmp87
# ../../../inc/Core/Memory/Address_space.h:25:             m_[address] = value;
	.loc 7 25 25
	movzx	ebx, BYTE PTR [rbp-32]	# value.6_1, value
# ../../../inc/Core/Memory/Address_space.h:25:             m_[address] = value;
	.loc 7 25 23
	mov	rax, QWORD PTR [rbp-24]	# tmp88, this
	lea	rdx, [rax+8]	# _2,
	mov	eax, DWORD PTR [rbp-28]	# _3, address
	mov	rsi, rax	#, _3
	mov	rdi, rdx	#, _2
	call	_ZNSt6vectorIhSaIhEEixEm	#
# ../../../inc/Core/Memory/Address_space.h:25:             m_[address] = value;
	.loc 7 25 25
	mov	BYTE PTR [rax], bl	# *_4, value.6_1
# ../../../inc/Core/Memory/Address_space.h:26:         }
	.loc 7 26 9
	nop	
	mov	rbx, QWORD PTR [rbp-8]	#,
	leave	
	.cfi_def_cfa 7, 8
	ret	
	.cfi_endproc
.LFE3953:
	.size	_ZN2gb6memory13Address_space5writeEjh, .-_ZN2gb6memory13Address_space5writeEjh
	.section	.text._ZN2gb6memory13Address_spaceixEj,"axG",@progbits,_ZN2gb6memory13Address_spaceixEj,comdat
	.align 2
	.weak	_ZN2gb6memory13Address_spaceixEj
	.type	_ZN2gb6memory13Address_spaceixEj, @function
_ZN2gb6memory13Address_spaceixEj:
.LFB3954:
	.loc 7 27 26
	.cfi_startproc
	push	rbp	#
	.cfi_def_cfa_offset 16
	.cfi_offset 6, -16
	mov	rbp, rsp	#,
	.cfi_def_cfa_register 6
	sub	rsp, 16	#,
	mov	QWORD PTR [rbp-8], rdi	# this, this
	mov	DWORD PTR [rbp-12], esi	# i, i
# ../../../inc/Core/Memory/Address_space.h:28:             return m_[i];
	.loc 7 28 24
	mov	rax, QWORD PTR [rbp-8]	# tmp86, this
	lea	rdx, [rax+8]	# _1,
	mov	eax, DWORD PTR [rbp-12]	# _2, i
	mov	rsi, rax	#, _2
	mov	rdi, rdx	#, _1
	call	_ZNSt6vectorIhSaIhEEixEm	#
# ../../../inc/Core/Memory/Address_space.h:29:         }
	.loc 7 29 9
	leave	
	.cfi_def_cfa 7, 8
	ret	
	.cfi_endproc
.LFE3954:
	.size	_ZN2gb6memory13Address_spaceixEj, .-_ZN2gb6memory13Address_spaceixEj
	.section	.text._ZN2gb3cpu10Interrupts7requestEi,"axG",@progbits,_ZN2gb3cpu10Interrupts7requestEi,comdat
	.align 2
	.weak	_ZN2gb3cpu10Interrupts7requestEi
	.type	_ZN2gb3cpu10Interrupts7requestEi, @function
_ZN2gb3cpu10Interrupts7requestEi:
.LFB3962:
	.file 8 "../../../inc/Core/cpu/Interrupts.h"
	.loc 8 24 14
	.cfi_startproc
	push	rbp	#
	.cfi_def_cfa_offset 16
	.cfi_offset 6, -16
	mov	rbp, rsp	#,
	.cfi_def_cfa_register 6
	mov	QWORD PTR [rbp-8], rdi	# this, this
	mov	DWORD PTR [rbp-12], esi	# i, i
# ../../../inc/Core/cpu/Interrupts.h:24:         void request(int i) { int_req |= (1 << i); };
	.loc 8 24 39
	mov	rax, QWORD PTR [rbp-8]	# tmp88, this
	movzx	eax, BYTE PTR [rax+1]	# _1, this_8(D)->int_req
	mov	esi, eax	# _2, _1
# ../../../inc/Core/cpu/Interrupts.h:24:         void request(int i) { int_req |= (1 << i); };
	.loc 8 24 45
	mov	eax, DWORD PTR [rbp-12]	# tmp89, i
	mov	edx, 1	# tmp90,
	mov	ecx, eax	# tmp94, tmp89
	sal	edx, cl	# tmp90, tmp94
	mov	eax, edx	# _3, tmp90
# ../../../inc/Core/cpu/Interrupts.h:24:         void request(int i) { int_req |= (1 << i); };
	.loc 8 24 39
	or	eax, esi	# _5, _2
	mov	edx, eax	# _6, _5
	mov	rax, QWORD PTR [rbp-8]	# tmp91, this
	mov	BYTE PTR [rax+1], dl	# this_8(D)->int_req, _6
# ../../../inc/Core/cpu/Interrupts.h:24:         void request(int i) { int_req |= (1 << i); };
	.loc 8 24 52
	nop	
	pop	rbp	#
	.cfi_def_cfa 7, 8
	ret	
	.cfi_endproc
.LFE3962:
	.size	_ZN2gb3cpu10Interrupts7requestEi, .-_ZN2gb3cpu10Interrupts7requestEi
	.section	.text._ZN2gb8graphics3GPU13Pixel_fetcherC2ERS1_,"axG",@progbits,_ZN2gb8graphics3GPU13Pixel_fetcherC5ERS1_,comdat
	.align 2
	.weak	_ZN2gb8graphics3GPU13Pixel_fetcherC2ERS1_
	.type	_ZN2gb8graphics3GPU13Pixel_fetcherC2ERS1_, @function
_ZN2gb8graphics3GPU13Pixel_fetcherC2ERS1_:
.LFB3976:
	.file 9 "../../../inc/Core/Graphics/GPU.h"
	.loc 9 113 13
	.cfi_startproc
	push	rbp	#
	.cfi_def_cfa_offset 16
	.cfi_offset 6, -16
	mov	rbp, rsp	#,
	.cfi_def_cfa_register 6
	mov	QWORD PTR [rbp-8], rdi	# this, this
	mov	QWORD PTR [rbp-16], rsi	# g, g
.LBB33:
# ../../../inc/Core/Graphics/GPU.h:114:                     fetcher_state_{Pixel_fetcher_state::get_tile}, tile_index_{0}, dot_clock_divider_{0}, g{g}, rendering_sprites(false) {};
	.loc 9 114 21
	mov	rax, QWORD PTR [rbp-8]	# tmp82, this
	mov	DWORD PTR [rax], 0	# this_2(D)->fetcher_state_,
# ../../../inc/Core/Graphics/GPU.h:114:                     fetcher_state_{Pixel_fetcher_state::get_tile}, tile_index_{0}, dot_clock_divider_{0}, g{g}, rendering_sprites(false) {};
	.loc 9 114 68
	mov	rax, QWORD PTR [rbp-8]	# tmp83, this
	mov	DWORD PTR [rax+8], 0	# this_2(D)->tile_index_,
# ../../../inc/Core/Graphics/GPU.h:114:                     fetcher_state_{Pixel_fetcher_state::get_tile}, tile_index_{0}, dot_clock_divider_{0}, g{g}, rendering_sprites(false) {};
	.loc 9 114 84
	mov	rax, QWORD PTR [rbp-8]	# tmp84, this
	mov	DWORD PTR [rax+20], 0	# this_2(D)->dot_clock_divider_,
# ../../../inc/Core/Graphics/GPU.h:114:                     fetcher_state_{Pixel_fetcher_state::get_tile}, tile_index_{0}, dot_clock_divider_{0}, g{g}, rendering_sprites(false) {};
	.loc 9 114 136
	mov	rax, QWORD PTR [rbp-8]	# tmp85, this
	mov	DWORD PTR [rax+32], 0	# this_2(D)->scroll_pixels,
# ../../../inc/Core/Graphics/GPU.h:114:                     fetcher_state_{Pixel_fetcher_state::get_tile}, tile_index_{0}, dot_clock_divider_{0}, g{g}, rendering_sprites(false) {};
	.loc 9 114 107
	mov	rax, QWORD PTR [rbp-8]	# tmp86, this
	mov	rdx, QWORD PTR [rbp-16]	# tmp87, g
	mov	QWORD PTR [rax+40], rdx	# this_2(D)->g, tmp87
# ../../../inc/Core/Graphics/GPU.h:114:                     fetcher_state_{Pixel_fetcher_state::get_tile}, tile_index_{0}, dot_clock_divider_{0}, g{g}, rendering_sprites(false) {};
	.loc 9 114 113
	mov	rax, QWORD PTR [rbp-8]	# tmp88, this
	mov	BYTE PTR [rax+48], 0	# this_2(D)->rendering_sprites,
.LBE33:
# ../../../inc/Core/Graphics/GPU.h:114:                     fetcher_state_{Pixel_fetcher_state::get_tile}, tile_index_{0}, dot_clock_divider_{0}, g{g}, rendering_sprites(false) {};
	.loc 9 114 139
	nop	
	pop	rbp	#
	.cfi_def_cfa 7, 8
	ret	
	.cfi_endproc
.LFE3976:
	.size	_ZN2gb8graphics3GPU13Pixel_fetcherC2ERS1_, .-_ZN2gb8graphics3GPU13Pixel_fetcherC2ERS1_
	.weak	_ZN2gb8graphics3GPU13Pixel_fetcherC1ERS1_
	.set	_ZN2gb8graphics3GPU13Pixel_fetcherC1ERS1_,_ZN2gb8graphics3GPU13Pixel_fetcherC2ERS1_
	.section	.text._ZN2gb8graphics3GPU13Pixel_fetcher20is_rendering_spritesEv,"axG",@progbits,_ZN2gb8graphics3GPU13Pixel_fetcher20is_rendering_spritesEv,comdat
	.align 2
	.weak	_ZN2gb8graphics3GPU13Pixel_fetcher20is_rendering_spritesEv
	.type	_ZN2gb8graphics3GPU13Pixel_fetcher20is_rendering_spritesEv, @function
_ZN2gb8graphics3GPU13Pixel_fetcher20is_rendering_spritesEv:
.LFB3979:
	.loc 9 120 18
	.cfi_startproc
	push	rbp	#
	.cfi_def_cfa_offset 16
	.cfi_offset 6, -16
	mov	rbp, rsp	#,
	.cfi_def_cfa_register 6
	mov	QWORD PTR [rbp-8], rdi	# this, this
# ../../../inc/Core/Graphics/GPU.h:120:             bool is_rendering_sprites() { return rendering_sprites; }
	.loc 9 120 50
	mov	rax, QWORD PTR [rbp-8]	# tmp84, this
	movzx	eax, BYTE PTR [rax+48]	# _3, this_2(D)->rendering_sprites
# ../../../inc/Core/Graphics/GPU.h:120:             bool is_rendering_sprites() { return rendering_sprites; }
	.loc 9 120 69
	pop	rbp	#
	.cfi_def_cfa 7, 8
	ret	
	.cfi_endproc
.LFE3979:
	.size	_ZN2gb8graphics3GPU13Pixel_fetcher20is_rendering_spritesEv, .-_ZN2gb8graphics3GPU13Pixel_fetcher20is_rendering_spritesEv
	.section	.text._ZN2gb8graphics3GPU13Pixel_fetcher19increment_dot_clockEv,"axG",@progbits,_ZN2gb8graphics3GPU13Pixel_fetcher19increment_dot_clockEv,comdat
	.align 2
	.weak	_ZN2gb8graphics3GPU13Pixel_fetcher19increment_dot_clockEv
	.type	_ZN2gb8graphics3GPU13Pixel_fetcher19increment_dot_clockEv, @function
_ZN2gb8graphics3GPU13Pixel_fetcher19increment_dot_clockEv:
.LFB3980:
	.loc 9 138 18
	.cfi_startproc
	push	rbp	#
	.cfi_def_cfa_offset 16
	.cfi_offset 6, -16
	mov	rbp, rsp	#,
	.cfi_def_cfa_register 6
	mov	QWORD PTR [rbp-8], rdi	# this, this
# ../../../inc/Core/Graphics/GPU.h:139:                 return (dot_clock_divider_++ & 1) == 1;
	.loc 9 139 25
	mov	rax, QWORD PTR [rbp-8]	# tmp87, this
	mov	eax, DWORD PTR [rax+20]	# _1, this_6(D)->dot_clock_divider_
# ../../../inc/Core/Graphics/GPU.h:139:                 return (dot_clock_divider_++ & 1) == 1;
	.loc 9 139 43
	lea	ecx, [rax+1]	# _3,
	mov	rdx, QWORD PTR [rbp-8]	# tmp88, this
	mov	DWORD PTR [rdx+20], ecx	# this_6(D)->dot_clock_divider_, _3
# ../../../inc/Core/Graphics/GPU.h:139:                 return (dot_clock_divider_++ & 1) == 1;
	.loc 9 139 46
	and	eax, 1	# _4,
# ../../../inc/Core/Graphics/GPU.h:139:                 return (dot_clock_divider_++ & 1) == 1;
	.loc 9 139 54
	cmp	eax, 1	# _4,
	sete	al	#, _8
# ../../../inc/Core/Graphics/GPU.h:140:             }
	.loc 9 140 13
	pop	rbp	#
	.cfi_def_cfa 7, 8
	ret	
	.cfi_endproc
.LFE3980:
	.size	_ZN2gb8graphics3GPU13Pixel_fetcher19increment_dot_clockEv, .-_ZN2gb8graphics3GPU13Pixel_fetcher19increment_dot_clockEv
	.section	.text._ZN2gb8graphics3GPU17is_window_visibleEv,"axG",@progbits,_ZN2gb8graphics3GPU17is_window_visibleEv,comdat
	.align 2
	.weak	_ZN2gb8graphics3GPU17is_window_visibleEv
	.type	_ZN2gb8graphics3GPU17is_window_visibleEv, @function
_ZN2gb8graphics3GPU17is_window_visibleEv:
.LFB3981:
	.loc 9 240 14
	.cfi_startproc
	push	rbp	#
	.cfi_def_cfa_offset 16
	.cfi_offset 6, -16
	mov	rbp, rsp	#,
	.cfi_def_cfa_register 6
	mov	QWORD PTR [rbp-8], rdi	# this, this
# ../../../inc/Core/Graphics/GPU.h:241:             return (mLCDC.window_enable)
	.loc 9 241 27
	mov	rax, QWORD PTR [rbp-8]	# tmp94, this
	movzx	eax, BYTE PTR [rax+92257]	# _1, this_13(D)->mLCDC.D.75647
	and	eax, 32	# _2,
# ../../../inc/Core/Graphics/GPU.h:245:                    && current_pixel_ >= (mWindowX - 7);
	.loc 9 245 20
	test	al, al	# _2
	je	.L47	#,
# ../../../inc/Core/Graphics/GPU.h:242:                    && (mWindowY <= m_LY)
	.loc 9 242 24
	mov	rax, QWORD PTR [rbp-8]	# tmp95, this
	movzx	edx, BYTE PTR [rax+92264]	# _3, this_13(D)->mWindowY
# ../../../inc/Core/Graphics/GPU.h:242:                    && (mWindowY <= m_LY)
	.loc 9 242 36
	mov	rax, QWORD PTR [rbp-8]	# tmp96, this
	movzx	eax, BYTE PTR [rax+92261]	# _4, this_13(D)->m_LY
# ../../../inc/Core/Graphics/GPU.h:242:                    && (mWindowY <= m_LY)
	.loc 9 242 20
	cmp	dl, al	# _3, _4
	ja	.L47	#,
# ../../../inc/Core/Graphics/GPU.h:243:                    && mWindowY <= 143
	.loc 9 243 23
	mov	rax, QWORD PTR [rbp-8]	# tmp97, this
	movzx	eax, BYTE PTR [rax+92264]	# _5, this_13(D)->mWindowY
# ../../../inc/Core/Graphics/GPU.h:243:                    && mWindowY <= 143
	.loc 9 243 20
	cmp	al, -113	# _5,
	ja	.L47	#,
# ../../../inc/Core/Graphics/GPU.h:244:                    && mWindowX <= 166
	.loc 9 244 23
	mov	rax, QWORD PTR [rbp-8]	# tmp98, this
	movzx	eax, BYTE PTR [rax+92263]	# _6, this_13(D)->mWindowX
# ../../../inc/Core/Graphics/GPU.h:244:                    && mWindowX <= 166
	.loc 9 244 20
	cmp	al, -90	# _6,
	ja	.L47	#,
# ../../../inc/Core/Graphics/GPU.h:245:                    && current_pixel_ >= (mWindowX - 7);
	.loc 9 245 23 discriminator 3
	mov	rax, QWORD PTR [rbp-8]	# tmp99, this
	mov	edx, DWORD PTR [rax+92972]	# _7, this_13(D)->current_pixel_
# ../../../inc/Core/Graphics/GPU.h:245:                    && current_pixel_ >= (mWindowX - 7);
	.loc 9 245 42 discriminator 3
	mov	rax, QWORD PTR [rbp-8]	# tmp100, this
	movzx	eax, BYTE PTR [rax+92263]	# _8, this_13(D)->mWindowX
	movzx	eax, al	# _9, _8
# ../../../inc/Core/Graphics/GPU.h:245:                    && current_pixel_ >= (mWindowX - 7);
	.loc 9 245 51 discriminator 3
	sub	eax, 7	# _10,
# ../../../inc/Core/Graphics/GPU.h:245:                    && current_pixel_ >= (mWindowX - 7);
	.loc 9 245 20 discriminator 3
	cmp	edx, eax	# _7, _10
	jl	.L47	#,
# ../../../inc/Core/Graphics/GPU.h:245:                    && current_pixel_ >= (mWindowX - 7);
	.loc 9 245 20 is_stmt 0 discriminator 2
	mov	eax, 1	# iftmp.46_11,
	jmp	.L48	#
.L47:
# ../../../inc/Core/Graphics/GPU.h:245:                    && current_pixel_ >= (mWindowX - 7);
	.loc 9 245 20 discriminator 1
	mov	eax, 0	# iftmp.46_11,
.L48:
# ../../../inc/Core/Graphics/GPU.h:246:         }
	.loc 9 246 9 is_stmt 1 discriminator 5
	pop	rbp	#
	.cfi_def_cfa 7, 8
	ret	
	.cfi_endproc
.LFE3981:
	.size	_ZN2gb8graphics3GPU17is_window_visibleEv, .-_ZN2gb8graphics3GPU17is_window_visibleEv
	.section	.rodata
	.align 4
	.type	_ZL5REG_B, @object
	.size	_ZL5REG_B, 4
_ZL5REG_B:
	.zero	4
	.align 4
	.type	_ZL5REG_C, @object
	.size	_ZL5REG_C, 4
_ZL5REG_C:
	.long	1
	.align 4
	.type	_ZL5REG_D, @object
	.size	_ZL5REG_D, 4
_ZL5REG_D:
	.long	2
	.align 4
	.type	_ZL5REG_E, @object
	.size	_ZL5REG_E, 4
_ZL5REG_E:
	.long	3
	.align 4
	.type	_ZL5REG_H, @object
	.size	_ZL5REG_H, 4
_ZL5REG_H:
	.long	4
	.align 4
	.type	_ZL5REG_L, @object
	.size	_ZL5REG_L, 4
_ZL5REG_L:
	.long	5
	.align 4
	.type	_ZL5REG_F, @object
	.size	_ZL5REG_F, 4
_ZL5REG_F:
	.long	6
	.align 4
	.type	_ZL5REG_A, @object
	.size	_ZL5REG_A, 4
_ZL5REG_A:
	.long	7
	.align 4
	.type	_ZL2BC, @object
	.size	_ZL2BC, 4
_ZL2BC:
	.zero	4
	.align 4
	.type	_ZL2DE, @object
	.size	_ZL2DE, 4
_ZL2DE:
	.long	1
	.align 4
	.type	_ZL2HL, @object
	.size	_ZL2HL, 4
_ZL2HL:
	.long	2
	.align 4
	.type	_ZL2AF, @object
	.size	_ZL2AF, 4
_ZL2AF:
	.long	3
	.align 4
	.type	_ZL2SP, @object
	.size	_ZL2SP, 4
_ZL2SP:
	.long	3
	.align 4
	.type	_ZL9ZERO_FLAG, @object
	.size	_ZL9ZERO_FLAG, 4
_ZL9ZERO_FLAG:
	.long	7
	.align 4
	.type	_ZL8SUB_FLAG, @object
	.size	_ZL8SUB_FLAG, 4
_ZL8SUB_FLAG:
	.long	6
	.align 4
	.type	_ZL15HALF_CARRY_FLAG, @object
	.size	_ZL15HALF_CARRY_FLAG, 4
_ZL15HALF_CARRY_FLAG:
	.long	5
	.align 4
	.type	_ZL10CARRY_FLAG, @object
	.size	_ZL10CARRY_FLAG, 4
_ZL10CARRY_FLAG:
	.long	4
	.type	_ZL11button_keys, @object
	.size	_ZL11button_keys, 1
_ZL11button_keys:
	.byte	32
	.type	_ZL14direction_keys, @object
	.size	_ZL14direction_keys, 1
_ZL14direction_keys:
	.byte	16
	.type	_ZL10down_start, @object
	.size	_ZL10down_start, 1
_ZL10down_start:
	.byte	8
	.type	_ZL9up_select, @object
	.size	_ZL9up_select, 1
_ZL9up_select:
	.byte	4
	.type	_ZL6left_b, @object
	.size	_ZL6left_b, 1
_ZL6left_b:
	.byte	2
	.type	_ZL7right_a, @object
	.size	_ZL7right_a, 1
_ZL7right_a:
	.byte	1
	.align 4
	.type	_ZN2gb3cpuL11clock_speedE, @object
	.size	_ZN2gb3cpuL11clock_speedE, 4
_ZN2gb3cpuL11clock_speedE:
	.long	4194304
	.section	.text._ZNSt12__shared_ptrIN2gb3cpu10InterruptsELN9__gnu_cxx12_Lock_policyE2EED2Ev,"axG",@progbits,_ZNSt12__shared_ptrIN2gb3cpu10InterruptsELN9__gnu_cxx12_Lock_policyE2EED5Ev,comdat
	.align 2
	.weak	_ZNSt12__shared_ptrIN2gb3cpu10InterruptsELN9__gnu_cxx12_Lock_policyE2EED2Ev
	.type	_ZNSt12__shared_ptrIN2gb3cpu10InterruptsELN9__gnu_cxx12_Lock_policyE2EED2Ev, @function
_ZNSt12__shared_ptrIN2gb3cpu10InterruptsELN9__gnu_cxx12_Lock_policyE2EED2Ev:
.LFB4755:
	.file 10 "/usr/include/c++/11/bits/shared_ptr_base.h"
	.loc 10 1154 7
	.cfi_startproc
	push	rbp	#
	.cfi_def_cfa_offset 16
	.cfi_offset 6, -16
	mov	rbp, rsp	#,
	.cfi_def_cfa_register 6
	sub	rsp, 16	#,
	mov	QWORD PTR [rbp-8], rdi	# this, this
.LBB34:
# /usr/include/c++/11/bits/shared_ptr_base.h:1154:       ~__shared_ptr() = default;
	.loc 10 1154 7
	mov	rax, QWORD PTR [rbp-8]	# tmp83, this
	add	rax, 8	# _1,
	mov	rdi, rax	#, _1
	call	_ZNSt14__shared_countILN9__gnu_cxx12_Lock_policyE2EED1Ev	#
.LBE34:
	nop	
	leave	
	.cfi_def_cfa 7, 8
	ret	
	.cfi_endproc
.LFE4755:
	.size	_ZNSt12__shared_ptrIN2gb3cpu10InterruptsELN9__gnu_cxx12_Lock_policyE2EED2Ev, .-_ZNSt12__shared_ptrIN2gb3cpu10InterruptsELN9__gnu_cxx12_Lock_policyE2EED2Ev
	.weak	_ZNSt12__shared_ptrIN2gb3cpu10InterruptsELN9__gnu_cxx12_Lock_policyE2EED1Ev
	.set	_ZNSt12__shared_ptrIN2gb3cpu10InterruptsELN9__gnu_cxx12_Lock_policyE2EED1Ev,_ZNSt12__shared_ptrIN2gb3cpu10InterruptsELN9__gnu_cxx12_Lock_policyE2EED2Ev
	.section	.text._ZNSt10shared_ptrIN2gb3cpu10InterruptsEED2Ev,"axG",@progbits,_ZNSt10shared_ptrIN2gb3cpu10InterruptsEED5Ev,comdat
	.align 2
	.weak	_ZNSt10shared_ptrIN2gb3cpu10InterruptsEED2Ev
	.type	_ZNSt10shared_ptrIN2gb3cpu10InterruptsEED2Ev, @function
_ZNSt10shared_ptrIN2gb3cpu10InterruptsEED2Ev:
.LFB4757:
	.file 11 "/usr/include/c++/11/bits/shared_ptr.h"
	.loc 11 122 11
	.cfi_startproc
	push	rbp	#
	.cfi_def_cfa_offset 16
	.cfi_offset 6, -16
	mov	rbp, rsp	#,
	.cfi_def_cfa_register 6
	sub	rsp, 16	#,
	mov	QWORD PTR [rbp-8], rdi	# this, this
.LBB35:
# /usr/include/c++/11/bits/shared_ptr.h:122:     class shared_ptr : public __shared_ptr<_Tp>
	.loc 11 122 11
	mov	rax, QWORD PTR [rbp-8]	# _1, this
	mov	rdi, rax	#, _1
	call	_ZNSt12__shared_ptrIN2gb3cpu10InterruptsELN9__gnu_cxx12_Lock_policyE2EED2Ev	#
.LBE35:
	nop	
	leave	
	.cfi_def_cfa 7, 8
	ret	
	.cfi_endproc
.LFE4757:
	.size	_ZNSt10shared_ptrIN2gb3cpu10InterruptsEED2Ev, .-_ZNSt10shared_ptrIN2gb3cpu10InterruptsEED2Ev
	.weak	_ZNSt10shared_ptrIN2gb3cpu10InterruptsEED1Ev
	.set	_ZNSt10shared_ptrIN2gb3cpu10InterruptsEED1Ev,_ZNSt10shared_ptrIN2gb3cpu10InterruptsEED2Ev
	.section	.text._ZN2gb6memory13Address_spaceD2Ev,"axG",@progbits,_ZN2gb6memory13Address_spaceD5Ev,comdat
	.align 2
	.weak	_ZN2gb6memory13Address_spaceD2Ev
	.type	_ZN2gb6memory13Address_spaceD2Ev, @function
_ZN2gb6memory13Address_spaceD2Ev:
.LFB4890:
	.loc 7 19 17
	.cfi_startproc
	push	rbp	#
	.cfi_def_cfa_offset 16
	.cfi_offset 6, -16
	mov	rbp, rsp	#,
	.cfi_def_cfa_register 6
	sub	rsp, 16	#,
	mov	QWORD PTR [rbp-8], rdi	# this, this
.LBB36:
# ../../../inc/Core/Memory/Address_space.h:19:         virtual ~Address_space() = default;
	.loc 7 19 17
	mov	edx, OFFSET FLAT:_ZTVN2gb6memory13Address_spaceE+16	# _1,
	mov	rax, QWORD PTR [rbp-8]	# tmp84, this
	mov	QWORD PTR [rax], rdx	# this_4(D)->_vptr.Address_space, _1
	mov	rax, QWORD PTR [rbp-8]	# tmp85, this
	add	rax, 8	# _2,
	mov	rdi, rax	#, _2
	call	_ZNSt6vectorIhSaIhEED1Ev	#
.LBE36:
	nop	
	leave	
	.cfi_def_cfa 7, 8
	ret	
	.cfi_endproc
.LFE4890:
	.size	_ZN2gb6memory13Address_spaceD2Ev, .-_ZN2gb6memory13Address_spaceD2Ev
	.weak	_ZN2gb6memory13Address_spaceD1Ev
	.set	_ZN2gb6memory13Address_spaceD1Ev,_ZN2gb6memory13Address_spaceD2Ev
	.section	.text._ZN2gb6memory13Address_spaceD0Ev,"axG",@progbits,_ZN2gb6memory13Address_spaceD5Ev,comdat
	.align 2
	.weak	_ZN2gb6memory13Address_spaceD0Ev
	.type	_ZN2gb6memory13Address_spaceD0Ev, @function
_ZN2gb6memory13Address_spaceD0Ev:
.LFB4892:
	.loc 7 19 17
	.cfi_startproc
	push	rbp	#
	.cfi_def_cfa_offset 16
	.cfi_offset 6, -16
	mov	rbp, rsp	#,
	.cfi_def_cfa_register 6
	sub	rsp, 16	#,
	mov	QWORD PTR [rbp-8], rdi	# this, this
# ../../../inc/Core/Memory/Address_space.h:19:         virtual ~Address_space() = default;
	.loc 7 19 17
	mov	rax, QWORD PTR [rbp-8]	# tmp82, this
	mov	rdi, rax	#, tmp82
	call	_ZN2gb6memory13Address_spaceD1Ev	#
	mov	rax, QWORD PTR [rbp-8]	# tmp83, this
	mov	esi, 40	#,
	mov	rdi, rax	#, tmp83
	call	_ZdlPvm	#
	leave	
	.cfi_def_cfa 7, 8
	ret	
	.cfi_endproc
.LFE4892:
	.size	_ZN2gb6memory13Address_spaceD0Ev, .-_ZN2gb6memory13Address_spaceD0Ev
	.section	.rodata
	.align 4
	.type	_ZN2gb6memory3mbcL13rom_bank_sizeE, @object
	.size	_ZN2gb6memory3mbcL13rom_bank_sizeE, 4
_ZN2gb6memory3mbcL13rom_bank_sizeE:
	.long	16384
	.align 4
	.type	_ZN2gb6memory3mbcL13ram_bank_sizeE, @object
	.size	_ZN2gb6memory3mbcL13ram_bank_sizeE, 4
_ZN2gb6memory3mbcL13ram_bank_sizeE:
	.long	8192
	.section	.text._ZNSt15_Rb_tree_headerC2Ev,"axG",@progbits,_ZNSt15_Rb_tree_headerC5Ev,comdat
	.align 2
	.weak	_ZNSt15_Rb_tree_headerC2Ev
	.type	_ZNSt15_Rb_tree_headerC2Ev, @function
_ZNSt15_Rb_tree_headerC2Ev:
.LFB5013:
	.file 12 "/usr/include/c++/11/bits/stl_tree.h"
	.loc 12 173 5
	.cfi_startproc
	push	rbp	#
	.cfi_def_cfa_offset 16
	.cfi_offset 6, -16
	mov	rbp, rsp	#,
	.cfi_def_cfa_register 6
	sub	rsp, 16	#,
	mov	QWORD PTR [rbp-8], rdi	# this, this
.LBB37:
# /usr/include/c++/11/bits/stl_tree.h:175:       _M_header._M_color = _S_red;
	.loc 12 175 26
	mov	rax, QWORD PTR [rbp-8]	# tmp82, this
	mov	DWORD PTR [rax], 0	# this_2(D)->_M_header._M_color,
# /usr/include/c++/11/bits/stl_tree.h:176:       _M_reset();
	.loc 12 176 15
	mov	rax, QWORD PTR [rbp-8]	# tmp83, this
	mov	rdi, rax	#, tmp83
	call	_ZNSt15_Rb_tree_header8_M_resetEv	#
.LBE37:
# /usr/include/c++/11/bits/stl_tree.h:177:     }
	.loc 12 177 5
	nop	
	leave	
	.cfi_def_cfa 7, 8
	ret	
	.cfi_endproc
.LFE5013:
	.size	_ZNSt15_Rb_tree_headerC2Ev, .-_ZNSt15_Rb_tree_headerC2Ev
	.weak	_ZNSt15_Rb_tree_headerC1Ev
	.set	_ZNSt15_Rb_tree_headerC1Ev,_ZNSt15_Rb_tree_headerC2Ev
	.section	.text._ZNSt15_Rb_tree_header8_M_resetEv,"axG",@progbits,_ZNSt15_Rb_tree_header8_M_resetEv,comdat
	.align 2
	.weak	_ZNSt15_Rb_tree_header8_M_resetEv
	.type	_ZNSt15_Rb_tree_header8_M_resetEv, @function
_ZNSt15_Rb_tree_header8_M_resetEv:
.LFB5019:
	.loc 12 206 5
	.cfi_startproc
	push	rbp	#
	.cfi_def_cfa_offset 16
	.cfi_offset 6, -16
	mov	rbp, rsp	#,
	.cfi_def_cfa_register 6
	mov	QWORD PTR [rbp-8], rdi	# this, this
# /usr/include/c++/11/bits/stl_tree.h:208:       _M_header._M_parent = 0;
	.loc 12 208 27
	mov	rax, QWORD PTR [rbp-8]	# tmp84, this
	mov	QWORD PTR [rax+8], 0	# this_4(D)->_M_header._M_parent,
# /usr/include/c++/11/bits/stl_tree.h:209:       _M_header._M_left = &_M_header;
	.loc 12 209 27
	mov	rdx, QWORD PTR [rbp-8]	# _1, this
# /usr/include/c++/11/bits/stl_tree.h:209:       _M_header._M_left = &_M_header;
	.loc 12 209 25
	mov	rax, QWORD PTR [rbp-8]	# tmp85, this
	mov	QWORD PTR [rax+16], rdx	# this_4(D)->_M_header._M_left, _1
# /usr/include/c++/11/bits/stl_tree.h:210:       _M_header._M_right = &_M_header;
	.loc 12 210 28
	mov	rdx, QWORD PTR [rbp-8]	# _2, this
# /usr/include/c++/11/bits/stl_tree.h:210:       _M_header._M_right = &_M_header;
	.loc 12 210 26
	mov	rax, QWORD PTR [rbp-8]	# tmp86, this
	mov	QWORD PTR [rax+24], rdx	# this_4(D)->_M_header._M_right, _2
# /usr/include/c++/11/bits/stl_tree.h:211:       _M_node_count = 0;
	.loc 12 211 21
	mov	rax, QWORD PTR [rbp-8]	# tmp87, this
	mov	QWORD PTR [rax+32], 0	# this_4(D)->_M_node_count,
# /usr/include/c++/11/bits/stl_tree.h:212:     }
	.loc 12 212 5
	nop	
	pop	rbp	#
	.cfi_def_cfa 7, 8
	ret	
	.cfi_endproc
.LFE5019:
	.size	_ZNSt15_Rb_tree_header8_M_resetEv, .-_ZNSt15_Rb_tree_header8_M_resetEv
	.section	.text._ZNSt9_Any_data9_M_accessEv,"axG",@progbits,_ZNSt9_Any_data9_M_accessEv,comdat
	.align 2
	.weak	_ZNSt9_Any_data9_M_accessEv
	.type	_ZNSt9_Any_data9_M_accessEv, @function
_ZNSt9_Any_data9_M_accessEv:
.LFB5362:
	.file 13 "/usr/include/c++/11/bits/std_function.h"
	.loc 13 85 17
	.cfi_startproc
	push	rbp	#
	.cfi_def_cfa_offset 16
	.cfi_offset 6, -16
	mov	rbp, rsp	#,
	.cfi_def_cfa_register 6
	mov	QWORD PTR [rbp-8], rdi	# this, this
# /usr/include/c++/11/bits/std_function.h:85:     void*       _M_access()       { return &_M_pod_data[0]; }
	.loc 13 85 58
	mov	rax, QWORD PTR [rbp-8]	# _2, this
# /usr/include/c++/11/bits/std_function.h:85:     void*       _M_access()       { return &_M_pod_data[0]; }
	.loc 13 85 61
	pop	rbp	#
	.cfi_def_cfa 7, 8
	ret	
	.cfi_endproc
.LFE5362:
	.size	_ZNSt9_Any_data9_M_accessEv, .-_ZNSt9_Any_data9_M_accessEv
	.section	.text._ZNKSt9_Any_data9_M_accessEv,"axG",@progbits,_ZNKSt9_Any_data9_M_accessEv,comdat
	.align 2
	.weak	_ZNKSt9_Any_data9_M_accessEv
	.type	_ZNKSt9_Any_data9_M_accessEv, @function
_ZNKSt9_Any_data9_M_accessEv:
.LFB5363:
	.loc 13 86 17
	.cfi_startproc
	push	rbp	#
	.cfi_def_cfa_offset 16
	.cfi_offset 6, -16
	mov	rbp, rsp	#,
	.cfi_def_cfa_register 6
	mov	QWORD PTR [rbp-8], rdi	# this, this
# /usr/include/c++/11/bits/std_function.h:86:     const void* _M_access() const { return &_M_pod_data[0]; }
	.loc 13 86 58
	mov	rax, QWORD PTR [rbp-8]	# _2, this
# /usr/include/c++/11/bits/std_function.h:86:     const void* _M_access() const { return &_M_pod_data[0]; }
	.loc 13 86 61
	pop	rbp	#
	.cfi_def_cfa 7, 8
	ret	
	.cfi_endproc
.LFE5363:
	.size	_ZNKSt9_Any_data9_M_accessEv, .-_ZNKSt9_Any_data9_M_accessEv
	.section	.text._ZNSt14_Function_baseC2Ev,"axG",@progbits,_ZNSt14_Function_baseC5Ev,comdat
	.align 2
	.weak	_ZNSt14_Function_baseC2Ev
	.type	_ZNSt14_Function_baseC2Ev, @function
_ZNSt14_Function_baseC2Ev:
.LFB5380:
	.loc 13 240 5
	.cfi_startproc
	push	rbp	#
	.cfi_def_cfa_offset 16
	.cfi_offset 6, -16
	mov	rbp, rsp	#,
	.cfi_def_cfa_register 6
	mov	QWORD PTR [rbp-8], rdi	# this, this
.LBB38:
# /usr/include/c++/11/bits/std_function.h:240:     _Function_base() : _M_manager(nullptr) { }
	.loc 13 240 24
	mov	rax, QWORD PTR [rbp-8]	# tmp82, this
	mov	QWORD PTR [rax+16], 0	# this_2(D)->_M_manager,
.LBE38:
# /usr/include/c++/11/bits/std_function.h:240:     _Function_base() : _M_manager(nullptr) { }
	.loc 13 240 46
	nop	
	pop	rbp	#
	.cfi_def_cfa 7, 8
	ret	
	.cfi_endproc
.LFE5380:
	.size	_ZNSt14_Function_baseC2Ev, .-_ZNSt14_Function_baseC2Ev
	.weak	_ZNSt14_Function_baseC1Ev
	.set	_ZNSt14_Function_baseC1Ev,_ZNSt14_Function_baseC2Ev
	.section	.text._ZNSt14_Function_baseD2Ev,"axG",@progbits,_ZNSt14_Function_baseD5Ev,comdat
	.align 2
	.weak	_ZNSt14_Function_baseD2Ev
	.type	_ZNSt14_Function_baseD2Ev, @function
_ZNSt14_Function_baseD2Ev:
.LFB5383:
	.loc 13 242 5
	.cfi_startproc
	.cfi_personality 0x3,__gxx_personality_v0
	.cfi_lsda 0x3,.LLSDA5383
	push	rbp	#
	.cfi_def_cfa_offset 16
	.cfi_offset 6, -16
	mov	rbp, rsp	#,
	.cfi_def_cfa_register 6
	sub	rsp, 16	#,
	mov	QWORD PTR [rbp-8], rdi	# this, this
.LBB39:
# /usr/include/c++/11/bits/std_function.h:244:       if (_M_manager)
	.loc 13 244 11
	mov	rax, QWORD PTR [rbp-8]	# tmp86, this
	mov	rax, QWORD PTR [rax+16]	# _1, this_7(D)->_M_manager
# /usr/include/c++/11/bits/std_function.h:244:       if (_M_manager)
	.loc 13 244 7
	test	rax, rax	# _1
	je	.L63	#,
# /usr/include/c++/11/bits/std_function.h:245: 	_M_manager(_M_functor, _M_functor, __destroy_functor);
	.loc 13 245 2
	mov	rax, QWORD PTR [rbp-8]	# tmp87, this
	mov	r8, QWORD PTR [rax+16]	# _2, this_7(D)->_M_manager
# /usr/include/c++/11/bits/std_function.h:245: 	_M_manager(_M_functor, _M_functor, __destroy_functor);
	.loc 13 245 25
	mov	rcx, QWORD PTR [rbp-8]	# _3, this
# /usr/include/c++/11/bits/std_function.h:245: 	_M_manager(_M_functor, _M_functor, __destroy_functor);
	.loc 13 245 13
	mov	rax, QWORD PTR [rbp-8]	# _4, this
# /usr/include/c++/11/bits/std_function.h:245: 	_M_manager(_M_functor, _M_functor, __destroy_functor);
	.loc 13 245 12
	mov	edx, 3	#,
	mov	rsi, rcx	#, _3
	mov	rdi, rax	#, _4
	call	r8	# _2
.LVL0:
.L63:
.LBE39:
# /usr/include/c++/11/bits/std_function.h:246:     }
	.loc 13 246 5
	nop	
	leave	
	.cfi_def_cfa 7, 8
	ret	
	.cfi_endproc
.LFE5383:
	.section	.gcc_except_table._ZNSt14_Function_baseD2Ev,"aG",@progbits,_ZNSt14_Function_baseD5Ev,comdat
.LLSDA5383:
	.byte	0xff
	.byte	0xff
	.byte	0x1
	.uleb128 .LLSDACSE5383-.LLSDACSB5383
.LLSDACSB5383:
.LLSDACSE5383:
	.section	.text._ZNSt14_Function_baseD2Ev,"axG",@progbits,_ZNSt14_Function_baseD5Ev,comdat
	.size	_ZNSt14_Function_baseD2Ev, .-_ZNSt14_Function_baseD2Ev
	.weak	_ZNSt14_Function_baseD1Ev
	.set	_ZNSt14_Function_baseD1Ev,_ZNSt14_Function_baseD2Ev
	.section	.text._ZNKSt14_Function_base8_M_emptyEv,"axG",@progbits,_ZNKSt14_Function_base8_M_emptyEv,comdat
	.align 2
	.weak	_ZNKSt14_Function_base8_M_emptyEv
	.type	_ZNKSt14_Function_base8_M_emptyEv, @function
_ZNKSt14_Function_base8_M_emptyEv:
.LFB5385:
	.loc 13 248 10
	.cfi_startproc
	push	rbp	#
	.cfi_def_cfa_offset 16
	.cfi_offset 6, -16
	mov	rbp, rsp	#,
	.cfi_def_cfa_register 6
	mov	QWORD PTR [rbp-8], rdi	# this, this
# /usr/include/c++/11/bits/std_function.h:248:     bool _M_empty() const { return !_M_manager; }
	.loc 13 248 37
	mov	rax, QWORD PTR [rbp-8]	# tmp85, this
	mov	rax, QWORD PTR [rax+16]	# _1, this_3(D)->_M_manager
	test	rax, rax	# _1
	sete	al	#, _4
# /usr/include/c++/11/bits/std_function.h:248:     bool _M_empty() const { return !_M_manager; }
	.loc 13 248 49
	pop	rbp	#
	.cfi_def_cfa 7, 8
	ret	
	.cfi_endproc
.LFE5385:
	.size	_ZNKSt14_Function_base8_M_emptyEv, .-_ZNKSt14_Function_base8_M_emptyEv
	.section	.text._ZSt3minImERKT_S2_S2_,"axG",@progbits,_ZSt3minImERKT_S2_S2_,comdat
	.weak	_ZSt3minImERKT_S2_S2_
	.type	_ZSt3minImERKT_S2_S2_, @function
_ZSt3minImERKT_S2_S2_:
.LFB5465:
	.loc 1 230 5
	.cfi_startproc
	push	rbp	#
	.cfi_def_cfa_offset 16
	.cfi_offset 6, -16
	mov	rbp, rsp	#,
	.cfi_def_cfa_register 6
	mov	QWORD PTR [rbp-8], rdi	# __a, __a
	mov	QWORD PTR [rbp-16], rsi	# __b, __b
# /usr/include/c++/11/bits/stl_algobase.h:235:       if (__b < __a)
	.loc 1 235 15
	mov	rax, QWORD PTR [rbp-16]	# tmp86, __b
	mov	rdx, QWORD PTR [rax]	# _1, *__b_5(D)
	mov	rax, QWORD PTR [rbp-8]	# tmp87, __a
	mov	rax, QWORD PTR [rax]	# _2, *__a_6(D)
# /usr/include/c++/11/bits/stl_algobase.h:235:       if (__b < __a)
	.loc 1 235 7
	cmp	rdx, rax	# _1, _2
	jnb	.L67	#,
# /usr/include/c++/11/bits/stl_algobase.h:236: 	return __b;
	.loc 1 236 9
	mov	rax, QWORD PTR [rbp-16]	# _3, __b
	jmp	.L68	#
.L67:
# /usr/include/c++/11/bits/stl_algobase.h:237:       return __a;
	.loc 1 237 14
	mov	rax, QWORD PTR [rbp-8]	# _3, __a
.L68:
# /usr/include/c++/11/bits/stl_algobase.h:238:     }
	.loc 1 238 5
	pop	rbp	#
	.cfi_def_cfa 7, 8
	ret	
	.cfi_endproc
.LFE5465:
	.size	_ZSt3minImERKT_S2_S2_, .-_ZSt3minImERKT_S2_S2_
	.section	.text._ZN4Tile9get_colorEii,"axG",@progbits,_ZN4Tile9get_colorEii,comdat
	.align 2
	.weak	_ZN4Tile9get_colorEii
	.type	_ZN4Tile9get_colorEii, @function
_ZN4Tile9get_colorEii:
.LFB6104:
	.file 14 "../../../inc/Core/Graphics/Tile.h"
	.loc 14 17 27
	.cfi_startproc
	push	rbp	#
	.cfi_def_cfa_offset 16
	.cfi_offset 6, -16
	mov	rbp, rsp	#,
	.cfi_def_cfa_register 6
	sub	rsp, 16	#,
	mov	QWORD PTR [rbp-8], rdi	# this, this
	mov	DWORD PTR [rbp-12], esi	# x, x
	mov	DWORD PTR [rbp-16], edx	# y, y
# ../../../inc/Core/Graphics/Tile.h:17:     [[nodiscard]] uint8_t get_color(int x, int y) { return tile_colors_[y][x]; }
	.loc 14 17 74
	mov	rax, QWORD PTR [rbp-8]	# _1, this
	mov	edx, DWORD PTR [rbp-16]	# tmp89, y
	movsx	rdx, edx	# _2, tmp89
	mov	rsi, rdx	#, _2
	mov	rdi, rax	#, _1
	call	_ZNSt5arrayIS_IhLm8EELm8EEixEm	#
	mov	rdx, rax	# _3,
# ../../../inc/Core/Graphics/Tile.h:17:     [[nodiscard]] uint8_t get_color(int x, int y) { return tile_colors_[y][x]; }
	.loc 14 17 77
	mov	eax, DWORD PTR [rbp-12]	# tmp90, x
	cdqe
	mov	rsi, rax	#, _4
	mov	rdi, rdx	#, _3
	call	_ZNSt5arrayIhLm8EEixEm	#
	movzx	eax, BYTE PTR [rax]	# _12, *_5
# ../../../inc/Core/Graphics/Tile.h:17:     [[nodiscard]] uint8_t get_color(int x, int y) { return tile_colors_[y][x]; }
	.loc 14 17 80
	leave	
	.cfi_def_cfa 7, 8
	ret	
	.cfi_endproc
.LFE6104:
	.size	_ZN4Tile9get_colorEii, .-_ZN4Tile9get_colorEii
	.section	.text._ZNSt12_Vector_baseI4TileSaIS0_EE12_Vector_implD2Ev,"axG",@progbits,_ZNSt12_Vector_baseI4TileSaIS0_EE12_Vector_implD5Ev,comdat
	.align 2
	.weak	_ZNSt12_Vector_baseI4TileSaIS0_EE12_Vector_implD2Ev
	.type	_ZNSt12_Vector_baseI4TileSaIS0_EE12_Vector_implD2Ev, @function
_ZNSt12_Vector_baseI4TileSaIS0_EE12_Vector_implD2Ev:
.LFB6109:
	.loc 6 128 14
	.cfi_startproc
	push	rbp	#
	.cfi_def_cfa_offset 16
	.cfi_offset 6, -16
	mov	rbp, rsp	#,
	.cfi_def_cfa_register 6
	sub	rsp, 16	#,
	mov	QWORD PTR [rbp-8], rdi	# this, this
.LBB40:
# /usr/include/c++/11/bits/stl_vector.h:128:       struct _Vector_impl
	.loc 6 128 14
	mov	rax, QWORD PTR [rbp-8]	# tmp82, this
	mov	rdi, rax	#, tmp82
	call	_ZNSaI4TileED2Ev	#
.LBE40:
	nop	
	leave	
	.cfi_def_cfa 7, 8
	ret	
	.cfi_endproc
.LFE6109:
	.size	_ZNSt12_Vector_baseI4TileSaIS0_EE12_Vector_implD2Ev, .-_ZNSt12_Vector_baseI4TileSaIS0_EE12_Vector_implD2Ev
	.weak	_ZNSt12_Vector_baseI4TileSaIS0_EE12_Vector_implD1Ev
	.set	_ZNSt12_Vector_baseI4TileSaIS0_EE12_Vector_implD1Ev,_ZNSt12_Vector_baseI4TileSaIS0_EE12_Vector_implD2Ev
	.section	.text._ZNSt12_Vector_baseI4TileSaIS0_EEC2Ev,"axG",@progbits,_ZNSt12_Vector_baseI4TileSaIS0_EEC5Ev,comdat
	.align 2
	.weak	_ZNSt12_Vector_baseI4TileSaIS0_EEC2Ev
	.type	_ZNSt12_Vector_baseI4TileSaIS0_EEC2Ev, @function
_ZNSt12_Vector_baseI4TileSaIS0_EEC2Ev:
.LFB6111:
	.loc 6 288 7
	.cfi_startproc
	push	rbp	#
	.cfi_def_cfa_offset 16
	.cfi_offset 6, -16
	mov	rbp, rsp	#,
	.cfi_def_cfa_register 6
	sub	rsp, 16	#,
	mov	QWORD PTR [rbp-8], rdi	# this, this
.LBB41:
# /usr/include/c++/11/bits/stl_vector.h:288:       _Vector_base() = default;
	.loc 6 288 7
	mov	rax, QWORD PTR [rbp-8]	# _1, this
	mov	rdi, rax	#, _1
	call	_ZNSt12_Vector_baseI4TileSaIS0_EE12_Vector_implC1Ev	#
.LBE41:
	nop	
	leave	
	.cfi_def_cfa 7, 8
	ret	
	.cfi_endproc
.LFE6111:
	.size	_ZNSt12_Vector_baseI4TileSaIS0_EEC2Ev, .-_ZNSt12_Vector_baseI4TileSaIS0_EEC2Ev
	.weak	_ZNSt12_Vector_baseI4TileSaIS0_EEC1Ev
	.set	_ZNSt12_Vector_baseI4TileSaIS0_EEC1Ev,_ZNSt12_Vector_baseI4TileSaIS0_EEC2Ev
	.section	.text._ZNSt6vectorI4TileSaIS0_EEC2Ev,"axG",@progbits,_ZNSt6vectorI4TileSaIS0_EEC5Ev,comdat
	.align 2
	.weak	_ZNSt6vectorI4TileSaIS0_EEC2Ev
	.type	_ZNSt6vectorI4TileSaIS0_EEC2Ev, @function
_ZNSt6vectorI4TileSaIS0_EEC2Ev:
.LFB6113:
	.loc 6 487 7
	.cfi_startproc
	push	rbp	#
	.cfi_def_cfa_offset 16
	.cfi_offset 6, -16
	mov	rbp, rsp	#,
	.cfi_def_cfa_register 6
	sub	rsp, 16	#,
	mov	QWORD PTR [rbp-8], rdi	# this, this
.LBB42:
# /usr/include/c++/11/bits/stl_vector.h:487:       vector() = default;
	.loc 6 487 7
	mov	rax, QWORD PTR [rbp-8]	# _1, this
	mov	rdi, rax	#, _1
	call	_ZNSt12_Vector_baseI4TileSaIS0_EEC2Ev	#
.LBE42:
	nop	
	leave	
	.cfi_def_cfa 7, 8
	ret	
	.cfi_endproc
.LFE6113:
	.size	_ZNSt6vectorI4TileSaIS0_EEC2Ev, .-_ZNSt6vectorI4TileSaIS0_EEC2Ev
	.weak	_ZNSt6vectorI4TileSaIS0_EEC1Ev
	.set	_ZNSt6vectorI4TileSaIS0_EEC1Ev,_ZNSt6vectorI4TileSaIS0_EEC2Ev
	.local	_ZN12_GLOBAL__N_17tilesetE
	.comm	_ZN12_GLOBAL__N_17tilesetE,24,16
	.section	.rodata
	.align 2
	.type	_ZN12_GLOBAL__N_1L14vram_bank_sizeE, @object
	.size	_ZN12_GLOBAL__N_1L14vram_bank_sizeE, 2
_ZN12_GLOBAL__N_1L14vram_bank_sizeE:
	.value	8192
	.align 2
	.type	_ZN12_GLOBAL__N_1L8oam_sizeE, @object
	.size	_ZN12_GLOBAL__N_1L8oam_sizeE, 2
_ZN12_GLOBAL__N_1L8oam_sizeE:
	.value	160
	.align 16
	.type	_ZN12_GLOBAL__N_1L11monoPaletteE, @object
	.size	_ZN12_GLOBAL__N_1L11monoPaletteE, 16
_ZN12_GLOBAL__N_1L11monoPaletteE:
	.long	-1
	.long	-3355444
	.long	-8947849
	.long	-16777216
	.section	.text._ZNSt12_Vector_baseI6spriteSaIS0_EE12_Vector_implD2Ev,"axG",@progbits,_ZNSt12_Vector_baseI6spriteSaIS0_EE12_Vector_implD5Ev,comdat
	.align 2
	.weak	_ZNSt12_Vector_baseI6spriteSaIS0_EE12_Vector_implD2Ev
	.type	_ZNSt12_Vector_baseI6spriteSaIS0_EE12_Vector_implD2Ev, @function
_ZNSt12_Vector_baseI6spriteSaIS0_EE12_Vector_implD2Ev:
.LFB6120:
	.loc 6 128 14
	.cfi_startproc
	push	rbp	#
	.cfi_def_cfa_offset 16
	.cfi_offset 6, -16
	mov	rbp, rsp	#,
	.cfi_def_cfa_register 6
	sub	rsp, 16	#,
	mov	QWORD PTR [rbp-8], rdi	# this, this
.LBB43:
# /usr/include/c++/11/bits/stl_vector.h:128:       struct _Vector_impl
	.loc 6 128 14
	mov	rax, QWORD PTR [rbp-8]	# tmp82, this
	mov	rdi, rax	#, tmp82
	call	_ZNSaI6spriteED2Ev	#
.LBE43:
	nop	
	leave	
	.cfi_def_cfa 7, 8
	ret	
	.cfi_endproc
.LFE6120:
	.size	_ZNSt12_Vector_baseI6spriteSaIS0_EE12_Vector_implD2Ev, .-_ZNSt12_Vector_baseI6spriteSaIS0_EE12_Vector_implD2Ev
	.weak	_ZNSt12_Vector_baseI6spriteSaIS0_EE12_Vector_implD1Ev
	.set	_ZNSt12_Vector_baseI6spriteSaIS0_EE12_Vector_implD1Ev,_ZNSt12_Vector_baseI6spriteSaIS0_EE12_Vector_implD2Ev
	.section	.text._ZNSt12_Vector_baseI6spriteSaIS0_EEC2Ev,"axG",@progbits,_ZNSt12_Vector_baseI6spriteSaIS0_EEC5Ev,comdat
	.align 2
	.weak	_ZNSt12_Vector_baseI6spriteSaIS0_EEC2Ev
	.type	_ZNSt12_Vector_baseI6spriteSaIS0_EEC2Ev, @function
_ZNSt12_Vector_baseI6spriteSaIS0_EEC2Ev:
.LFB6122:
	.loc 6 288 7
	.cfi_startproc
	push	rbp	#
	.cfi_def_cfa_offset 16
	.cfi_offset 6, -16
	mov	rbp, rsp	#,
	.cfi_def_cfa_register 6
	sub	rsp, 16	#,
	mov	QWORD PTR [rbp-8], rdi	# this, this
.LBB44:
# /usr/include/c++/11/bits/stl_vector.h:288:       _Vector_base() = default;
	.loc 6 288 7
	mov	rax, QWORD PTR [rbp-8]	# _1, this
	mov	rdi, rax	#, _1
	call	_ZNSt12_Vector_baseI6spriteSaIS0_EE12_Vector_implC1Ev	#
.LBE44:
	nop	
	leave	
	.cfi_def_cfa 7, 8
	ret	
	.cfi_endproc
.LFE6122:
	.size	_ZNSt12_Vector_baseI6spriteSaIS0_EEC2Ev, .-_ZNSt12_Vector_baseI6spriteSaIS0_EEC2Ev
	.weak	_ZNSt12_Vector_baseI6spriteSaIS0_EEC1Ev
	.set	_ZNSt12_Vector_baseI6spriteSaIS0_EEC1Ev,_ZNSt12_Vector_baseI6spriteSaIS0_EEC2Ev
	.section	.text._ZNSt6vectorI6spriteSaIS0_EEC2Ev,"axG",@progbits,_ZNSt6vectorI6spriteSaIS0_EEC5Ev,comdat
	.align 2
	.weak	_ZNSt6vectorI6spriteSaIS0_EEC2Ev
	.type	_ZNSt6vectorI6spriteSaIS0_EEC2Ev, @function
_ZNSt6vectorI6spriteSaIS0_EEC2Ev:
.LFB6124:
	.loc 6 487 7
	.cfi_startproc
	push	rbp	#
	.cfi_def_cfa_offset 16
	.cfi_offset 6, -16
	mov	rbp, rsp	#,
	.cfi_def_cfa_register 6
	sub	rsp, 16	#,
	mov	QWORD PTR [rbp-8], rdi	# this, this
.LBB45:
# /usr/include/c++/11/bits/stl_vector.h:487:       vector() = default;
	.loc 6 487 7
	mov	rax, QWORD PTR [rbp-8]	# _1, this
	mov	rdi, rax	#, _1
	call	_ZNSt12_Vector_baseI6spriteSaIS0_EEC2Ev	#
.LBE45:
	nop	
	leave	
	.cfi_def_cfa 7, 8
	ret	
	.cfi_endproc
.LFE6124:
	.size	_ZNSt6vectorI6spriteSaIS0_EEC2Ev, .-_ZNSt6vectorI6spriteSaIS0_EEC2Ev
	.weak	_ZNSt6vectorI6spriteSaIS0_EEC1Ev
	.set	_ZNSt6vectorI6spriteSaIS0_EEC1Ev,_ZNSt6vectorI6spriteSaIS0_EEC2Ev
	.section	.text._ZNSt5queueIjSt5dequeIjSaIjEEED2Ev,"axG",@progbits,_ZNSt5queueIjSt5dequeIjSaIjEEED5Ev,comdat
	.align 2
	.weak	_ZNSt5queueIjSt5dequeIjSaIjEEED2Ev
	.type	_ZNSt5queueIjSt5dequeIjSaIjEEED2Ev, @function
_ZNSt5queueIjSt5dequeIjSaIjEEED2Ev:
.LFB6128:
	.file 15 "/usr/include/c++/11/bits/stl_queue.h"
	.loc 15 96 11
	.cfi_startproc
	push	rbp	#
	.cfi_def_cfa_offset 16
	.cfi_offset 6, -16
	mov	rbp, rsp	#,
	.cfi_def_cfa_register 6
	sub	rsp, 16	#,
	mov	QWORD PTR [rbp-8], rdi	# this, this
.LBB46:
# /usr/include/c++/11/bits/stl_queue.h:96:     class queue
	.loc 15 96 11
	mov	rax, QWORD PTR [rbp-8]	# _1, this
	mov	rdi, rax	#, _1
	call	_ZNSt5dequeIjSaIjEED1Ev	#
.LBE46:
	nop	
	leave	
	.cfi_def_cfa 7, 8
	ret	
	.cfi_endproc
.LFE6128:
	.size	_ZNSt5queueIjSt5dequeIjSaIjEEED2Ev, .-_ZNSt5queueIjSt5dequeIjSaIjEEED2Ev
	.weak	_ZNSt5queueIjSt5dequeIjSaIjEEED1Ev
	.set	_ZNSt5queueIjSt5dequeIjSaIjEEED1Ev,_ZNSt5queueIjSt5dequeIjSaIjEEED2Ev
	.section	.text._ZNSt5dequeIN2gb8graphics3GPU12Sprite_pixelESaIS3_EEC2Ev,"axG",@progbits,_ZNSt5dequeIN2gb8graphics3GPU12Sprite_pixelESaIS3_EEC5Ev,comdat
	.align 2
	.weak	_ZNSt5dequeIN2gb8graphics3GPU12Sprite_pixelESaIS3_EEC2Ev
	.type	_ZNSt5dequeIN2gb8graphics3GPU12Sprite_pixelESaIS3_EEC2Ev, @function
_ZNSt5dequeIN2gb8graphics3GPU12Sprite_pixelESaIS3_EEC2Ev:
.LFB6131:
	.loc 5 833 7
	.cfi_startproc
	push	rbp	#
	.cfi_def_cfa_offset 16
	.cfi_offset 6, -16
	mov	rbp, rsp	#,
	.cfi_def_cfa_register 6
	sub	rsp, 16	#,
	mov	QWORD PTR [rbp-8], rdi	# this, this
.LBB47:
# /usr/include/c++/11/bits/stl_deque.h:833:       deque() = default;
	.loc 5 833 7
	mov	rax, QWORD PTR [rbp-8]	# _1, this
	mov	rdi, rax	#, _1
	call	_ZNSt11_Deque_baseIN2gb8graphics3GPU12Sprite_pixelESaIS3_EEC2Ev	#
.LBE47:
	nop	
	leave	
	.cfi_def_cfa 7, 8
	ret	
	.cfi_endproc
.LFE6131:
	.size	_ZNSt5dequeIN2gb8graphics3GPU12Sprite_pixelESaIS3_EEC2Ev, .-_ZNSt5dequeIN2gb8graphics3GPU12Sprite_pixelESaIS3_EEC2Ev
	.weak	_ZNSt5dequeIN2gb8graphics3GPU12Sprite_pixelESaIS3_EEC1Ev
	.set	_ZNSt5dequeIN2gb8graphics3GPU12Sprite_pixelESaIS3_EEC1Ev,_ZNSt5dequeIN2gb8graphics3GPU12Sprite_pixelESaIS3_EEC2Ev
	.text
	.align 2
	.globl	_ZN2gb8graphics3GPUC2ERNS_7GameboyESt10shared_ptrINS_3cpu10InterruptsEE
	.type	_ZN2gb8graphics3GPUC2ERNS_7GameboyESt10shared_ptrINS_3cpu10InterruptsEE, @function
_ZN2gb8graphics3GPUC2ERNS_7GameboyESt10shared_ptrINS_3cpu10InterruptsEE:
.LFB6133:
	.file 16 "GPU.cpp"
	.loc 16 27 1
	.cfi_startproc
	.cfi_personality 0x3,__gxx_personality_v0
	.cfi_lsda 0x3,.LLSDA6133
	push	rbp	#
	.cfi_def_cfa_offset 16
	.cfi_offset 6, -16
	mov	rbp, rsp	#,
	.cfi_def_cfa_register 6
	push	rbx	#
	sub	rsp, 40	#,
	.cfi_offset 3, -24
	mov	QWORD PTR [rbp-24], rdi	# this, this
	mov	QWORD PTR [rbp-32], rsi	# pGB, pGB
	mov	QWORD PTR [rbp-40], rdx	# interrupts, interrupts
.LBB48:
# GPU.cpp:28:         : m_GB(pGB), interrupts_(std::move(interrupts)), mOAM(oam_size), mVRAM(vram_bank_size << (pGB.is_cgb_ ? 1 : 0)),
	.loc 16 28 11
	mov	rax, QWORD PTR [rbp-24]	# tmp101, this
	mov	rdx, QWORD PTR [rbp-32]	# tmp102, pGB
	mov	QWORD PTR [rax], rdx	# this_25(D)->m_GB, tmp102
# GPU.cpp:28:         : m_GB(pGB), interrupts_(std::move(interrupts)), mOAM(oam_size), mVRAM(vram_bank_size << (pGB.is_cgb_ ? 1 : 0)),
	.loc 16 28 22
	mov	rax, QWORD PTR [rbp-24]	# tmp103, this
	lea	rbx, [rax+8]	# _1,
# GPU.cpp:28:         : m_GB(pGB), interrupts_(std::move(interrupts)), mOAM(oam_size), mVRAM(vram_bank_size << (pGB.is_cgb_ ? 1 : 0)),
	.loc 16 28 43
	mov	rax, QWORD PTR [rbp-40]	# tmp104, interrupts
	mov	rdi, rax	#, tmp104
	call	_ZSt4moveIRSt10shared_ptrIN2gb3cpu10InterruptsEEEONSt16remove_referenceIT_E4typeEOS7_	#
# GPU.cpp:28:         : m_GB(pGB), interrupts_(std::move(interrupts)), mOAM(oam_size), mVRAM(vram_bank_size << (pGB.is_cgb_ ? 1 : 0)),
	.loc 16 28 22
	mov	rsi, rax	#, _2
	mov	rdi, rbx	#, _1
	call	_ZNSt10shared_ptrIN2gb3cpu10InterruptsEEC1EOS3_	#
# GPU.cpp:29:         window_visible_(false), bg_fifo{}, spr_fifo{}, pxl_fetcher(*this), state_(Ppu_state::oam_search) {
	.loc 16 29 104
	mov	rax, QWORD PTR [rbp-24]	# tmp105, this
	add	rax, 24	# _3,
	mov	rdi, rax	#, _3
	call	_ZNSt6vectorI6spriteSaIS0_EEC1Ev	#
# GPU.cpp:29:         window_visible_(false), bg_fifo{}, spr_fifo{}, pxl_fetcher(*this), state_(Ppu_state::oam_search) {
	.loc 16 29 76
	mov	rax, QWORD PTR [rbp-24]	# tmp106, this
	mov	BYTE PTR [rax+92256], 2	# this_25(D)->state_,
# GPU.cpp:29:         window_visible_(false), bg_fifo{}, spr_fifo{}, pxl_fetcher(*this), state_(Ppu_state::oam_search) {
	.loc 16 29 104
	mov	rax, QWORD PTR [rbp-24]	# tmp107, this
	mov	BYTE PTR [rax+92270], 0	# this_25(D)->rendering_window,
	mov	rax, QWORD PTR [rbp-24]	# tmp108, this
	mov	BYTE PTR [rax+92271], 0	# this_25(D)->internal_window_counter,
# GPU.cpp:29:         window_visible_(false), bg_fifo{}, spr_fifo{}, pxl_fetcher(*this), state_(Ppu_state::oam_search) {
	.loc 16 29 33
	mov	rax, QWORD PTR [rbp-24]	# tmp109, this
	add	rax, 92272	# _4,
	mov	rdi, rax	#, _4
.LEHB2:
	call	_ZNSt5queueIjSt5dequeIjSaIjEEEC1IS2_vEEv	#
.LEHE2:
# GPU.cpp:29:         window_visible_(false), bg_fifo{}, spr_fifo{}, pxl_fetcher(*this), state_(Ppu_state::oam_search) {
	.loc 16 29 44 discriminator 1
	mov	rax, QWORD PTR [rbp-24]	# tmp110, this
	mov	QWORD PTR [rax+92352], 0	# this_25(D)->spr_fifo,
	mov	QWORD PTR [rax+92360], 0	# this_25(D)->spr_fifo,
	mov	QWORD PTR [rax+92368], 0	# this_25(D)->spr_fifo,
	mov	QWORD PTR [rax+92376], 0	# this_25(D)->spr_fifo,
	mov	QWORD PTR [rax+92384], 0	# this_25(D)->spr_fifo,
	mov	QWORD PTR [rax+92392], 0	# this_25(D)->spr_fifo,
	mov	QWORD PTR [rax+92400], 0	# this_25(D)->spr_fifo,
	mov	QWORD PTR [rax+92408], 0	# this_25(D)->spr_fifo,
	mov	QWORD PTR [rax+92416], 0	# this_25(D)->spr_fifo,
	mov	QWORD PTR [rax+92424], 0	# this_25(D)->spr_fifo,
	mov	rax, QWORD PTR [rbp-24]	# tmp111, this
	add	rax, 92352	# _5,
	mov	rdi, rax	#, _5
.LEHB3:
	call	_ZNSt5dequeIN2gb8graphics3GPU12Sprite_pixelESaIS3_EEC1Ev	#
.LEHE3:
# GPU.cpp:29:         window_visible_(false), bg_fifo{}, spr_fifo{}, pxl_fetcher(*this), state_(Ppu_state::oam_search) {
	.loc 16 29 56 discriminator 2
	mov	rax, QWORD PTR [rbp-24]	# tmp112, this
	lea	rdx, [rax+92432]	# _6,
	mov	rax, QWORD PTR [rbp-24]	# tmp113, this
	mov	rsi, rax	#, tmp113
	mov	rdi, rdx	#, _6
	call	_ZN2gb8graphics3GPU13Pixel_fetcherC1ERS1_	#
# GPU.cpp:29:         window_visible_(false), bg_fifo{}, spr_fifo{}, pxl_fetcher(*this), state_(Ppu_state::oam_search) {
	.loc 16 29 104 discriminator 2
	mov	rax, QWORD PTR [rbp-24]	# tmp114, this
	add	rax, 92500	# _7,
	mov	rdi, rax	#, _7
.LEHB4:
	call	_ZN10CGBPaletteC1Ev	#
# GPU.cpp:29:         window_visible_(false), bg_fifo{}, spr_fifo{}, pxl_fetcher(*this), state_(Ppu_state::oam_search) {
	.loc 16 29 104 is_stmt 0 discriminator 3
	mov	rax, QWORD PTR [rbp-24]	# tmp115, this
	add	rax, 92696	# _8,
	mov	rdi, rax	#, _8
	call	_ZN10CGBPaletteC1Ev	#
# GPU.cpp:28:         : m_GB(pGB), interrupts_(std::move(interrupts)), mOAM(oam_size), mVRAM(vram_bank_size << (pGB.is_cgb_ ? 1 : 0)),
	.loc 16 28 58 is_stmt 1
	mov	rax, QWORD PTR [rbp-24]	# tmp116, this
	add	rax, 92888	# _9,
	mov	esi, 160	#,
	mov	rdi, rax	#, _9
	call	_ZN2gb6memory13Address_spaceC1Ej	#
.LEHE4:
# GPU.cpp:28:         : m_GB(pGB), interrupts_(std::move(interrupts)), mOAM(oam_size), mVRAM(vram_bank_size << (pGB.is_cgb_ ? 1 : 0)),
	.loc 16 28 74 discriminator 1
	mov	rax, QWORD PTR [rbp-24]	# tmp117, this
	add	rax, 92928	# _10,
# GPU.cpp:28:         : m_GB(pGB), interrupts_(std::move(interrupts)), mOAM(oam_size), mVRAM(vram_bank_size << (pGB.is_cgb_ ? 1 : 0)),
	.loc 16 28 103 discriminator 1
	mov	rdx, QWORD PTR [rbp-32]	# tmp118, pGB
	movzx	edx, BYTE PTR [rdx+272]	# _11, pGB_27(D)->is_cgb_
# GPU.cpp:28:         : m_GB(pGB), interrupts_(std::move(interrupts)), mOAM(oam_size), mVRAM(vram_bank_size << (pGB.is_cgb_ ? 1 : 0)),
	.loc 16 28 74 discriminator 1
	test	dl, dl	# _11
	je	.L80	#,
# GPU.cpp:28:         : m_GB(pGB), interrupts_(std::move(interrupts)), mOAM(oam_size), mVRAM(vram_bank_size << (pGB.is_cgb_ ? 1 : 0)),
	.loc 16 28 74 is_stmt 0 discriminator 2
	mov	edx, 16384	# iftmp.0_18,
	jmp	.L81	#
.L80:
# GPU.cpp:28:         : m_GB(pGB), interrupts_(std::move(interrupts)), mOAM(oam_size), mVRAM(vram_bank_size << (pGB.is_cgb_ ? 1 : 0)),
	.loc 16 28 74 discriminator 3
	mov	edx, 8192	# iftmp.0_18,
.L81:
# GPU.cpp:28:         : m_GB(pGB), interrupts_(std::move(interrupts)), mOAM(oam_size), mVRAM(vram_bank_size << (pGB.is_cgb_ ? 1 : 0)),
	.loc 16 28 74 discriminator 5
	mov	esi, edx	#, iftmp.0_18
	mov	rdi, rax	#, _10
.LEHB5:
	call	_ZN2gb6memory13Address_spaceC1Ej	#
.LEHE5:
# GPU.cpp:29:         window_visible_(false), bg_fifo{}, spr_fifo{}, pxl_fetcher(*this), state_(Ppu_state::oam_search) {
	.loc 16 29 9 is_stmt 1
	mov	rax, QWORD PTR [rbp-24]	# tmp119, this
	mov	BYTE PTR [rax+92971], 0	# this_25(D)->window_visible_,
# GPU.cpp:29:         window_visible_(false), bg_fifo{}, spr_fifo{}, pxl_fetcher(*this), state_(Ppu_state::oam_search) {
	.loc 16 29 104
	mov	rax, QWORD PTR [rbp-24]	# tmp120, this
	mov	DWORD PTR [rax+92972], 0	# this_25(D)->current_pixel_,
# GPU.cpp:30:     reset();
	.loc 16 30 10
	mov	rax, QWORD PTR [rbp-24]	# tmp121, this
	mov	rdi, rax	#, tmp121
.LEHB6:
	call	_ZN2gb8graphics3GPU5resetEv	#
# GPU.cpp:31:     tileset.reserve(384);
	.loc 16 31 20
	mov	esi, 384	#,
	mov	edi, OFFSET FLAT:_ZN12_GLOBAL__N_17tilesetE	#,
	call	_ZNSt6vectorI4TileSaIS0_EE7reserveEm	#
.LEHE6:
.LBE48:
# GPU.cpp:32: }
	.loc 16 32 1
	jmp	.L92	#
.L91:
.LBB49:
	mov	rbx, rax	# tmp124,
	mov	rax, QWORD PTR [rbp-24]	# tmp122, this
	add	rax, 92928	# _12,
	mov	rdi, rax	#, _12
	call	_ZN2gb6memory13Address_spaceD1Ev	#
	jmp	.L83	#
.L90:
	mov	rbx, rax	# tmp123,
.L83:
	mov	rax, QWORD PTR [rbp-24]	# tmp127, this
	add	rax, 92888	# _13,
	mov	rdi, rax	#, _13
	call	_ZN2gb6memory13Address_spaceD1Ev	#
	jmp	.L84	#
.L89:
	mov	rbx, rax	# tmp128,
.L84:
	mov	rax, QWORD PTR [rbp-24]	# tmp130, this
	add	rax, 92352	# _14,
	mov	rdi, rax	#, _14
	call	_ZNSt5dequeIN2gb8graphics3GPU12Sprite_pixelESaIS3_EED1Ev	#
	jmp	.L85	#
.L88:
	mov	rbx, rax	# tmp131,
.L85:
	mov	rax, QWORD PTR [rbp-24]	# tmp133, this
	add	rax, 92272	# _15,
	mov	rdi, rax	#, _15
	call	_ZNSt5queueIjSt5dequeIjSaIjEEED1Ev	#
	jmp	.L86	#
.L87:
	mov	rbx, rax	# tmp134,
.L86:
	mov	rax, QWORD PTR [rbp-24]	# tmp136, this
	add	rax, 24	# _16,
	mov	rdi, rax	#, _16
	call	_ZNSt6vectorI6spriteSaIS0_EED1Ev	#
	mov	rax, QWORD PTR [rbp-24]	# tmp139, this
	add	rax, 8	# _17,
	mov	rdi, rax	#, _17
	call	_ZNSt10shared_ptrIN2gb3cpu10InterruptsEED1Ev	#
	mov	rax, rbx	# D.184493, tmp137
	mov	rdi, rax	#, D.184493
.LEHB7:
	call	_Unwind_Resume	#
.LEHE7:
.L92:
.LBE49:
	mov	rbx, QWORD PTR [rbp-8]	#,
	leave	
	.cfi_def_cfa 7, 8
	ret	
	.cfi_endproc
.LFE6133:
	.section	.gcc_except_table,"a",@progbits
.LLSDA6133:
	.byte	0xff
	.byte	0xff
	.byte	0x1
	.uleb128 .LLSDACSE6133-.LLSDACSB6133
.LLSDACSB6133:
	.uleb128 .LEHB2-.LFB6133
	.uleb128 .LEHE2-.LEHB2
	.uleb128 .L87-.LFB6133
	.uleb128 0
	.uleb128 .LEHB3-.LFB6133
	.uleb128 .LEHE3-.LEHB3
	.uleb128 .L88-.LFB6133
	.uleb128 0
	.uleb128 .LEHB4-.LFB6133
	.uleb128 .LEHE4-.LEHB4
	.uleb128 .L89-.LFB6133
	.uleb128 0
	.uleb128 .LEHB5-.LFB6133
	.uleb128 .LEHE5-.LEHB5
	.uleb128 .L90-.LFB6133
	.uleb128 0
	.uleb128 .LEHB6-.LFB6133
	.uleb128 .LEHE6-.LEHB6
	.uleb128 .L91-.LFB6133
	.uleb128 0
	.uleb128 .LEHB7-.LFB6133
	.uleb128 .LEHE7-.LEHB7
	.uleb128 0
	.uleb128 0
.LLSDACSE6133:
	.text
	.size	_ZN2gb8graphics3GPUC2ERNS_7GameboyESt10shared_ptrINS_3cpu10InterruptsEE, .-_ZN2gb8graphics3GPUC2ERNS_7GameboyESt10shared_ptrINS_3cpu10InterruptsEE
	.globl	_ZN2gb8graphics3GPUC1ERNS_7GameboyESt10shared_ptrINS_3cpu10InterruptsEE
	.set	_ZN2gb8graphics3GPUC1ERNS_7GameboyESt10shared_ptrINS_3cpu10InterruptsEE,_ZN2gb8graphics3GPUC2ERNS_7GameboyESt10shared_ptrINS_3cpu10InterruptsEE
	.align 2
	.globl	_ZN2gb8graphics3GPU5resetEv
	.type	_ZN2gb8graphics3GPU5resetEv, @function
_ZN2gb8graphics3GPU5resetEv:
.LFB6135:
	.loc 16 34 33
	.cfi_startproc
	push	rbp	#
	.cfi_def_cfa_offset 16
	.cfi_offset 6, -16
	mov	rbp, rsp	#,
	.cfi_def_cfa_register 6
	sub	rsp, 16	#,
	mov	QWORD PTR [rbp-8], rdi	# this, this
# GPU.cpp:35:     mLCDC.val = 0x91;
	.loc 16 35 15
	mov	rax, QWORD PTR [rbp-8]	# tmp86, this
	mov	BYTE PTR [rax+92257], -111	# this_6(D)->mLCDC.val,
# GPU.cpp:36:     mLCDStat = 0x81;
	.loc 16 36 14
	mov	rax, QWORD PTR [rbp-8]	# tmp87, this
	mov	BYTE PTR [rax+92258], -127	# this_6(D)->mLCDStat,
# GPU.cpp:37:     mScrollX = 0;
	.loc 16 37 14
	mov	rax, QWORD PTR [rbp-8]	# tmp88, this
	mov	BYTE PTR [rax+92259], 0	# this_6(D)->mScrollX,
# GPU.cpp:38:     mScrollY = 0;
	.loc 16 38 14
	mov	rax, QWORD PTR [rbp-8]	# tmp89, this
	mov	BYTE PTR [rax+92260], 0	# this_6(D)->mScrollY,
# GPU.cpp:39:     m_LY = 0;
	.loc 16 39 10
	mov	rax, QWORD PTR [rbp-8]	# tmp90, this
	mov	BYTE PTR [rax+92261], 0	# this_6(D)->m_LY,
# GPU.cpp:40:     mLYC = 0;
	.loc 16 40 10
	mov	rax, QWORD PTR [rbp-8]	# tmp91, this
	mov	BYTE PTR [rax+92262], 0	# this_6(D)->mLYC,
# GPU.cpp:41:     mBGPalette = 0xFC;
	.loc 16 41 16
	mov	rax, QWORD PTR [rbp-8]	# tmp92, this
	mov	BYTE PTR [rax+92265], -4	# this_6(D)->mBGPalette,
# GPU.cpp:42:     mObjPal0 = 0xFF;
	.loc 16 42 14
	mov	rax, QWORD PTR [rbp-8]	# tmp93, this
	mov	BYTE PTR [rax+92266], -1	# this_6(D)->mObjPal0,
# GPU.cpp:43:     mObjPal1 = 0xFF;
	.loc 16 43 14
	mov	rax, QWORD PTR [rbp-8]	# tmp94, this
	mov	BYTE PTR [rax+92267], -1	# this_6(D)->mObjPal1,
# GPU.cpp:44:     mWindowX = 0;
	.loc 16 44 14
	mov	rax, QWORD PTR [rbp-8]	# tmp95, this
	mov	BYTE PTR [rax+92263], 0	# this_6(D)->mWindowX,
# GPU.cpp:45:     mWindowY = 0;
	.loc 16 45 14
	mov	rax, QWORD PTR [rbp-8]	# tmp96, this
	mov	BYTE PTR [rax+92264], 0	# this_6(D)->mWindowY,
# GPU.cpp:46:     mScanlineCounter = 0;
	.loc 16 46 22
	mov	rax, QWORD PTR [rbp-8]	# tmp97, this
	mov	DWORD PTR [rax+92488], 0	# this_6(D)->mScanlineCounter,
# GPU.cpp:47:     mVRAMBank = 0;
	.loc 16 47 15
	mov	rax, QWORD PTR [rbp-8]	# tmp98, this
	mov	BYTE PTR [rax+92269], 0	# this_6(D)->mVRAMBank,
# GPU.cpp:48:     mBGEnable = mWindowEnable = mSpriteEnable = true;
	.loc 16 48 47
	mov	rax, QWORD PTR [rbp-8]	# tmp99, this
	mov	BYTE PTR [rax+92970], 1	# this_6(D)->mSpriteEnable,
# GPU.cpp:48:     mBGEnable = mWindowEnable = mSpriteEnable = true;
	.loc 16 48 33
	mov	rax, QWORD PTR [rbp-8]	# tmp100, this
	movzx	edx, BYTE PTR [rax+92970]	# _1, this_6(D)->mSpriteEnable
# GPU.cpp:48:     mBGEnable = mWindowEnable = mSpriteEnable = true;
	.loc 16 48 31
	mov	rax, QWORD PTR [rbp-8]	# tmp101, this
	mov	BYTE PTR [rax+92968], dl	# this_6(D)->mWindowEnable, _1
# GPU.cpp:48:     mBGEnable = mWindowEnable = mSpriteEnable = true;
	.loc 16 48 17
	mov	rax, QWORD PTR [rbp-8]	# tmp102, this
	movzx	edx, BYTE PTR [rax+92968]	# _2, this_6(D)->mWindowEnable
# GPU.cpp:48:     mBGEnable = mWindowEnable = mSpriteEnable = true;
	.loc 16 48 15
	mov	rax, QWORD PTR [rbp-8]	# tmp103, this
	mov	BYTE PTR [rax+92969], dl	# this_6(D)->mBGEnable, _2
# GPU.cpp:49:     mHDMARunning = false;
	.loc 16 49 18
	mov	rax, QWORD PTR [rbp-8]	# tmp104, this
	mov	BYTE PTR [rax+92497], 0	# this_6(D)->mHDMARunning,
# GPU.cpp:50:     update_bg_palette();
	.loc 16 50 22
	mov	rax, QWORD PTR [rbp-8]	# tmp105, this
	mov	rdi, rax	#, tmp105
	call	_ZN2gb8graphics3GPU17update_bg_paletteEv	#
# GPU.cpp:51:     update_obj0_palette();
	.loc 16 51 24
	mov	rax, QWORD PTR [rbp-8]	# tmp106, this
	mov	rdi, rax	#, tmp106
	call	_ZN2gb8graphics3GPU19update_obj0_paletteEv	#
# GPU.cpp:52:     update_obj1_palette();
	.loc 16 52 24
	mov	rax, QWORD PTR [rbp-8]	# tmp107, this
	mov	rdi, rax	#, tmp107
	call	_ZN2gb8graphics3GPU19update_obj1_paletteEv	#
# GPU.cpp:56: }
	.loc 16 56 1
	nop	
	leave	
	.cfi_def_cfa 7, 8
	ret	
	.cfi_endproc
.LFE6135:
	.size	_ZN2gb8graphics3GPU5resetEv, .-_ZN2gb8graphics3GPU5resetEv
	.align 2
	.globl	_ZN2gb8graphics3GPU4readEt
	.type	_ZN2gb8graphics3GPU4readEt, @function
_ZN2gb8graphics3GPU4readEt:
.LFB6136:
	.loc 16 57 48
	.cfi_startproc
	push	rbp	#
	.cfi_def_cfa_offset 16
	.cfi_offset 6, -16
	mov	rbp, rsp	#,
	.cfi_def_cfa_register 6
	sub	rsp, 16	#,
	mov	QWORD PTR [rbp-8], rdi	# this, this
	mov	eax, esi	# tmp101, addr
	mov	WORD PTR [rbp-12], ax	# addr, tmp102
# GPU.cpp:58:     switch (addr) {
	.loc 16 58 13
	movzx	eax, WORD PTR [rbp-12]	# _1, addr
# GPU.cpp:58:     switch (addr) {
	.loc 16 58 5
	sub	eax, 65344	# tmp103,
	cmp	eax, 11	# tmp103,
	ja	.L95	#,
	mov	eax, eax	# tmp104, tmp103
	mov	rax, QWORD PTR .L97[0+rax*8]	# tmp105,
	jmp	rax	# tmp105
	.section	.rodata
	.align 8
	.align 4
.L97:
	.quad	.L108
	.quad	.L107
	.quad	.L106
	.quad	.L105
	.quad	.L104
	.quad	.L103
	.quad	.L102
	.quad	.L101
	.quad	.L100
	.quad	.L99
	.quad	.L98
	.quad	.L96
	.text
.L108:
# GPU.cpp:59:         case LCD_CONTROL:   return mLCDC.val;
	.loc 16 59 42
	mov	rax, QWORD PTR [rbp-8]	# tmp106, this
	movzx	eax, BYTE PTR [rax+92257]	# _18, this_25(D)->mLCDC.val
	jmp	.L109	#
.L107:
# GPU.cpp:60:         case LCD_STATUS:    return mLCDStat;
	.loc 16 60 36
	mov	rax, QWORD PTR [rbp-8]	# tmp107, this
	movzx	eax, BYTE PTR [rax+92258]	# _18, this_25(D)->mLCDStat
	jmp	.L109	#
.L106:
# GPU.cpp:61:         case SCROLL_Y:      return mScrollY;
	.loc 16 61 36
	mov	rax, QWORD PTR [rbp-8]	# tmp108, this
	movzx	eax, BYTE PTR [rax+92260]	# _18, this_25(D)->mScrollY
	jmp	.L109	#
.L105:
# GPU.cpp:62:         case SCROLL_X:      return mScrollX;
	.loc 16 62 36
	mov	rax, QWORD PTR [rbp-8]	# tmp109, this
	movzx	eax, BYTE PTR [rax+92259]	# _18, this_25(D)->mScrollX
	jmp	.L109	#
.L104:
# GPU.cpp:63:         case LCDC_Y:        return m_LY;
	.loc 16 63 36
	mov	rax, QWORD PTR [rbp-8]	# tmp110, this
	movzx	eax, BYTE PTR [rax+92261]	# _18, this_25(D)->m_LY
	jmp	.L109	#
.L103:
# GPU.cpp:64:         case LY_COMPARE:    return mLYC;
	.loc 16 64 36
	mov	rax, QWORD PTR [rbp-8]	# tmp111, this
	movzx	eax, BYTE PTR [rax+92262]	# _18, this_25(D)->mLYC
	jmp	.L109	#
.L102:
# GPU.cpp:65:         case DMA_TRANSFER:  return mDMASrc;
	.loc 16 65 36
	mov	rax, QWORD PTR [rbp-8]	# tmp112, this
	movzx	eax, BYTE PTR [rax+92268]	# _18, this_25(D)->mDMASrc
	jmp	.L109	#
.L101:
# GPU.cpp:66:         case BG_PALETTE:    return m_GB.is_cgb_ ? 0xFF : mBGPalette;
	.loc 16 66 36
	mov	rax, QWORD PTR [rbp-8]	# tmp113, this
	mov	rax, QWORD PTR [rax]	# _2, this_25(D)->m_GB
# GPU.cpp:66:         case BG_PALETTE:    return m_GB.is_cgb_ ? 0xFF : mBGPalette;
	.loc 16 66 41
	movzx	eax, BYTE PTR [rax+272]	# _3, _2->is_cgb_
# GPU.cpp:66:         case BG_PALETTE:    return m_GB.is_cgb_ ? 0xFF : mBGPalette;
	.loc 16 66 58
	test	al, al	# _3
	je	.L110	#,
# GPU.cpp:66:         case BG_PALETTE:    return m_GB.is_cgb_ ? 0xFF : mBGPalette;
	.loc 16 66 58 is_stmt 0 discriminator 1
	mov	eax, -1	# _18,
	jmp	.L109	#
.L110:
# GPU.cpp:66:         case BG_PALETTE:    return m_GB.is_cgb_ ? 0xFF : mBGPalette;
	.loc 16 66 58 discriminator 2
	mov	rax, QWORD PTR [rbp-8]	# tmp114, this
	movzx	eax, BYTE PTR [rax+92265]	# _18, this_25(D)->mBGPalette
	jmp	.L109	#
.L100:
# GPU.cpp:67:         case OBJ_PAL0:      return m_GB.is_cgb_ ? 0xFF : mObjPal0;
	.loc 16 67 36 is_stmt 1
	mov	rax, QWORD PTR [rbp-8]	# tmp115, this
	mov	rax, QWORD PTR [rax]	# _4, this_25(D)->m_GB
# GPU.cpp:67:         case OBJ_PAL0:      return m_GB.is_cgb_ ? 0xFF : mObjPal0;
	.loc 16 67 41
	movzx	eax, BYTE PTR [rax+272]	# _5, _4->is_cgb_
# GPU.cpp:67:         case OBJ_PAL0:      return m_GB.is_cgb_ ? 0xFF : mObjPal0;
	.loc 16 67 58
	test	al, al	# _5
	je	.L112	#,
# GPU.cpp:67:         case OBJ_PAL0:      return m_GB.is_cgb_ ? 0xFF : mObjPal0;
	.loc 16 67 58 is_stmt 0 discriminator 1
	mov	eax, -1	# _18,
	jmp	.L109	#
.L112:
# GPU.cpp:67:         case OBJ_PAL0:      return m_GB.is_cgb_ ? 0xFF : mObjPal0;
	.loc 16 67 58 discriminator 2
	mov	rax, QWORD PTR [rbp-8]	# tmp116, this
	movzx	eax, BYTE PTR [rax+92266]	# _18, this_25(D)->mObjPal0
	jmp	.L109	#
.L99:
# GPU.cpp:68:         case OBJ_PAL1:      return m_GB.is_cgb_ ? 0xFF : mObjPal1;
	.loc 16 68 36 is_stmt 1
	mov	rax, QWORD PTR [rbp-8]	# tmp117, this
	mov	rax, QWORD PTR [rax]	# _6, this_25(D)->m_GB
# GPU.cpp:68:         case OBJ_PAL1:      return m_GB.is_cgb_ ? 0xFF : mObjPal1;
	.loc 16 68 41
	movzx	eax, BYTE PTR [rax+272]	# _7, _6->is_cgb_
# GPU.cpp:68:         case OBJ_PAL1:      return m_GB.is_cgb_ ? 0xFF : mObjPal1;
	.loc 16 68 58
	test	al, al	# _7
	je	.L114	#,
# GPU.cpp:68:         case OBJ_PAL1:      return m_GB.is_cgb_ ? 0xFF : mObjPal1;
	.loc 16 68 58 is_stmt 0 discriminator 1
	mov	eax, -1	# _18,
	jmp	.L109	#
.L114:
# GPU.cpp:68:         case OBJ_PAL1:      return m_GB.is_cgb_ ? 0xFF : mObjPal1;
	.loc 16 68 58 discriminator 2
	mov	rax, QWORD PTR [rbp-8]	# tmp118, this
	movzx	eax, BYTE PTR [rax+92267]	# _18, this_25(D)->mObjPal1
	jmp	.L109	#
.L98:
# GPU.cpp:69:         case WINDOW_Y:      return mWindowY;
	.loc 16 69 36 is_stmt 1
	mov	rax, QWORD PTR [rbp-8]	# tmp119, this
	movzx	eax, BYTE PTR [rax+92264]	# _18, this_25(D)->mWindowY
	jmp	.L109	#
.L96:
# GPU.cpp:70:         case WINDOW_X:      return mWindowX;
	.loc 16 70 36
	mov	rax, QWORD PTR [rbp-8]	# tmp120, this
	movzx	eax, BYTE PTR [rax+92263]	# _18, this_25(D)->mWindowX
	jmp	.L109	#
.L95:
# GPU.cpp:72:     if ( m_GB.is_cgb_ ) {
	.loc 16 72 10
	mov	rax, QWORD PTR [rbp-8]	# tmp121, this
	mov	rax, QWORD PTR [rax]	# _8, this_25(D)->m_GB
# GPU.cpp:72:     if ( m_GB.is_cgb_ ) {
	.loc 16 72 15
	movzx	eax, BYTE PTR [rax+272]	# _9, _8->is_cgb_
# GPU.cpp:72:     if ( m_GB.is_cgb_ ) {
	.loc 16 72 5
	test	al, al	# _9
	je	.L116	#,
# GPU.cpp:73:         switch (addr) {
	.loc 16 73 17
	movzx	eax, WORD PTR [rbp-12]	# _10, addr
# GPU.cpp:73:         switch (addr) {
	.loc 16 73 9
	sub	eax, 65359	# tmp122,
	cmp	eax, 28	# tmp122,
	ja	.L116	#,
	mov	eax, eax	# tmp123, tmp122
	mov	rax, QWORD PTR .L118[0+rax*8]	# tmp124,
	jmp	rax	# tmp124
	.section	.rodata
	.align 8
	.align 4
.L118:
	.quad	.L127
	.quad	.L116
	.quad	.L126
	.quad	.L125
	.quad	.L124
	.quad	.L123
	.quad	.L122
	.quad	.L116
	.quad	.L116
	.quad	.L116
	.quad	.L116
	.quad	.L116
	.quad	.L116
	.quad	.L116
	.quad	.L116
	.quad	.L116
	.quad	.L116
	.quad	.L116
	.quad	.L116
	.quad	.L116
	.quad	.L116
	.quad	.L116
	.quad	.L116
	.quad	.L116
	.quad	.L116
	.quad	.L121
	.quad	.L120
	.quad	.L119
	.quad	.L117
	.text
.L127:
# GPU.cpp:75:                 return mVRAMBank | 0xFE;
	.loc 16 75 24
	mov	rax, QWORD PTR [rbp-8]	# tmp125, this
	movzx	eax, BYTE PTR [rax+92269]	# _11, this_25(D)->mVRAMBank
# GPU.cpp:75:                 return mVRAMBank | 0xFE;
	.loc 16 75 36
	or	eax, -2	# _18,
	jmp	.L109	#
.L126:
# GPU.cpp:77:                 return mHDMASourceHi;
	.loc 16 77 24
	mov	rax, QWORD PTR [rbp-8]	# tmp126, this
	movzx	eax, BYTE PTR [rax+92493]	# _18, this_25(D)->mHDMASourceHi
	jmp	.L109	#
.L125:
# GPU.cpp:79:                 return mHDMASourceLo;
	.loc 16 79 24
	mov	rax, QWORD PTR [rbp-8]	# tmp127, this
	movzx	eax, BYTE PTR [rax+92492]	# _18, this_25(D)->mHDMASourceLo
	jmp	.L109	#
.L124:
# GPU.cpp:81:                 return mHDMADestHi;
	.loc 16 81 24
	mov	rax, QWORD PTR [rbp-8]	# tmp128, this
	movzx	eax, BYTE PTR [rax+92495]	# _18, this_25(D)->mHDMADestHi
	jmp	.L109	#
.L123:
# GPU.cpp:83:                 return mHDMADestLo;
	.loc 16 83 24
	mov	rax, QWORD PTR [rbp-8]	# tmp129, this
	movzx	eax, BYTE PTR [rax+92494]	# _18, this_25(D)->mHDMADestLo
	jmp	.L109	#
.L122:
# GPU.cpp:85:                 return mHDMALenMode.val;
	.loc 16 85 37
	mov	rax, QWORD PTR [rbp-8]	# tmp130, this
	movzx	eax, BYTE PTR [rax+92496]	# _18, this_25(D)->mHDMALenMode.val
	jmp	.L109	#
.L121:
# GPU.cpp:87:                 return mBCPS.val;
	.loc 16 87 30
	mov	rax, QWORD PTR [rbp-8]	# tmp131, this
	movzx	eax, BYTE PTR [rax+92498]	# _18, this_25(D)->mBCPS.val
	jmp	.L109	#
.L120:
# GPU.cpp:89:                 return mBCPD.get_byte(mBCPS.index);
	.loc 16 89 38
	mov	rax, QWORD PTR [rbp-8]	# tmp132, this
	lea	rdx, [rax+92500]	# _12,
# GPU.cpp:89:                 return mBCPD.get_byte(mBCPS.index);
	.loc 16 89 45
	mov	rax, QWORD PTR [rbp-8]	# tmp133, this
	movzx	eax, BYTE PTR [rax+92498]	# tmp135, *this_25(D)
	and	eax, 63	# _13,
# GPU.cpp:89:                 return mBCPD.get_byte(mBCPS.index);
	.loc 16 89 38
	movzx	eax, al	# _14, _13
	mov	esi, eax	#, _14
	mov	rdi, rdx	#, _12
	call	_ZN10CGBPalette8get_byteEi	#
# GPU.cpp:89:                 return mBCPD.get_byte(mBCPS.index);
	.loc 16 89 50
	jmp	.L109	#
.L119:
# GPU.cpp:91:                 return mOCPS.val;
	.loc 16 91 30
	mov	rax, QWORD PTR [rbp-8]	# tmp136, this
	movzx	eax, BYTE PTR [rax+92692]	# _18, this_25(D)->mOCPS.val
	jmp	.L109	#
.L117:
# GPU.cpp:93:                 return m_OCPD.get_byte(mOCPS.index);
	.loc 16 93 39
	mov	rax, QWORD PTR [rbp-8]	# tmp137, this
	lea	rdx, [rax+92696]	# _15,
# GPU.cpp:93:                 return m_OCPD.get_byte(mOCPS.index);
	.loc 16 93 46
	mov	rax, QWORD PTR [rbp-8]	# tmp138, this
	movzx	eax, BYTE PTR [rax+92692]	# tmp140, *this_25(D)
	and	eax, 63	# _16,
# GPU.cpp:93:                 return m_OCPD.get_byte(mOCPS.index);
	.loc 16 93 39
	movzx	eax, al	# _17, _16
	mov	esi, eax	#, _17
	mov	rdi, rdx	#, _15
	call	_ZN10CGBPalette8get_byteEi	#
# GPU.cpp:93:                 return m_OCPD.get_byte(mOCPS.index);
	.loc 16 93 51
	jmp	.L109	#
.L116:
# GPU.cpp:96:     return 0xFF;
	.loc 16 96 12
	mov	eax, -1	# _18,
.L109:
# GPU.cpp:97: }
	.loc 16 97 1
	leave	
	.cfi_def_cfa 7, 8
	ret	
	.cfi_endproc
.LFE6136:
	.size	_ZN2gb8graphics3GPU4readEt, .-_ZN2gb8graphics3GPU4readEt
	.section	.rodata
	.align 8
.LC0:
	.string	"Writing to unknown GPU register at $"
.LC1:
	.string	" value 0x"
	.text
	.align 2
	.globl	_ZN2gb8graphics3GPU4sendEth
	.type	_ZN2gb8graphics3GPU4sendEth, @function
_ZN2gb8graphics3GPU4sendEth:
.LFB6137:
	.loc 16 99 58
	.cfi_startproc
	.cfi_personality 0x3,__gxx_personality_v0
	.cfi_lsda 0x3,.LLSDA6137
	push	rbp	#
	.cfi_def_cfa_offset 16
	.cfi_offset 6, -16
	mov	rbp, rsp	#,
	.cfi_def_cfa_register 6
	push	rbx	#
	sub	rsp, 456	#,
	.cfi_offset 3, -24
	mov	QWORD PTR [rbp-456], rdi	# this, this
	mov	eax, esi	# tmp137, addr
	mov	WORD PTR [rbp-460], ax	# addr, tmp138
	mov	eax, edx	# tmp140, tmp139
	mov	BYTE PTR [rbp-464], al	# val, tmp140
.LBB50:
# GPU.cpp:100:     switch(addr) {
	.loc 16 100 12
	movzx	eax, WORD PTR [rbp-460]	# _1, addr
# GPU.cpp:100:     switch(addr) {
	.loc 16 100 5
	sub	eax, 65344	# tmp141,
	cmp	eax, 43	# tmp141,
	ja	.L129	#,
	mov	eax, eax	# tmp142, tmp141
	mov	rax, QWORD PTR .L131[0+rax*8]	# tmp143,
	jmp	rax	# tmp143
	.section	.rodata
	.align 8
	.align 4
.L131:
	.quad	.L152
	.quad	.L151
	.quad	.L150
	.quad	.L149
	.quad	.L148
	.quad	.L147
	.quad	.L146
	.quad	.L145
	.quad	.L144
	.quad	.L143
	.quad	.L142
	.quad	.L141
	.quad	.L129
	.quad	.L129
	.quad	.L129
	.quad	.L140
	.quad	.L129
	.quad	.L139
	.quad	.L138
	.quad	.L137
	.quad	.L136
	.quad	.L135
	.quad	.L129
	.quad	.L129
	.quad	.L129
	.quad	.L129
	.quad	.L129
	.quad	.L129
	.quad	.L129
	.quad	.L129
	.quad	.L129
	.quad	.L129
	.quad	.L129
	.quad	.L129
	.quad	.L129
	.quad	.L129
	.quad	.L129
	.quad	.L129
	.quad	.L129
	.quad	.L129
	.quad	.L134
	.quad	.L133
	.quad	.L132
	.quad	.L130
	.text
.L152:
.LBB51:
# GPU.cpp:102:             mLCDC.val = val;
	.loc 16 102 23
	mov	rax, QWORD PTR [rbp-456]	# tmp144, this
	movzx	edx, BYTE PTR [rbp-464]	# tmp145, val
	mov	BYTE PTR [rax+92257], dl	# this_65(D)->mLCDC.val, tmp145
# GPU.cpp:103:             break;
	.loc 16 103 13
	jmp	.L153	#
.L151:
# GPU.cpp:105:             mLCDStat = 0x80 | val;
	.loc 16 105 29
	movzx	eax, BYTE PTR [rbp-464]	# tmp146, val
	or	eax, -128	# tmp146,
	mov	edx, eax	# _2, tmp146
# GPU.cpp:105:             mLCDStat = 0x80 | val;
	.loc 16 105 22
	mov	rax, QWORD PTR [rbp-456]	# tmp147, this
	mov	BYTE PTR [rax+92258], dl	# this_65(D)->mLCDStat, _2
# GPU.cpp:106:             break;
	.loc 16 106 13
	jmp	.L153	#
.L150:
# GPU.cpp:108:             mScrollY = val;
	.loc 16 108 22
	mov	rax, QWORD PTR [rbp-456]	# tmp148, this
	movzx	edx, BYTE PTR [rbp-464]	# tmp149, val
	mov	BYTE PTR [rax+92260], dl	# this_65(D)->mScrollY, tmp149
# GPU.cpp:109:             break;
	.loc 16 109 13
	jmp	.L153	#
.L149:
# GPU.cpp:111:             mScrollX = val;
	.loc 16 111 22
	mov	rax, QWORD PTR [rbp-456]	# tmp150, this
	movzx	edx, BYTE PTR [rbp-464]	# tmp151, val
	mov	BYTE PTR [rax+92259], dl	# this_65(D)->mScrollX, tmp151
# GPU.cpp:112:             break;
	.loc 16 112 13
	jmp	.L153	#
.L148:
# GPU.cpp:114:             m_LY = 0;
	.loc 16 114 18
	mov	rax, QWORD PTR [rbp-456]	# tmp152, this
	mov	BYTE PTR [rax+92261], 0	# this_65(D)->m_LY,
# GPU.cpp:115:             break;
	.loc 16 115 13
	jmp	.L153	#
.L147:
# GPU.cpp:117:             mLYC = val;
	.loc 16 117 18
	mov	rax, QWORD PTR [rbp-456]	# tmp153, this
	movzx	edx, BYTE PTR [rbp-464]	# tmp154, val
	mov	BYTE PTR [rax+92262], dl	# this_65(D)->mLYC, tmp154
# GPU.cpp:118:             break;
	.loc 16 118 13
	jmp	.L153	#
.L146:
# GPU.cpp:120:             mDMASrc = val;
	.loc 16 120 21
	mov	rax, QWORD PTR [rbp-456]	# tmp155, this
	movzx	edx, BYTE PTR [rbp-464]	# tmp156, val
	mov	BYTE PTR [rax+92268], dl	# this_65(D)->mDMASrc, tmp156
# GPU.cpp:121:             m_GB.mmu_->trigger_dma(val);
	.loc 16 121 13
	mov	rax, QWORD PTR [rbp-456]	# tmp157, this
	mov	rax, QWORD PTR [rax]	# _3, this_65(D)->m_GB
# GPU.cpp:121:             m_GB.mmu_->trigger_dma(val);
	.loc 16 121 35
	add	rax, 16	# _4,
	mov	rdi, rax	#, _4
	call	_ZNKSt10unique_ptrIN2gb6memory6MemoryESt14default_deleteIS2_EEptEv	#
	mov	rdx, rax	# _5,
	movzx	eax, BYTE PTR [rbp-464]	# _6, val
	mov	esi, eax	#, _6
	mov	rdi, rdx	#, _5
.LEHB8:
	call	_ZN2gb6memory6Memory11trigger_dmaEh	#
# GPU.cpp:122:             break;
	.loc 16 122 13
	jmp	.L153	#
.L145:
# GPU.cpp:124:             if ( !m_GB.is_cgb_ ) {
	.loc 16 124 19
	mov	rax, QWORD PTR [rbp-456]	# tmp158, this
	mov	rax, QWORD PTR [rax]	# _7, this_65(D)->m_GB
# GPU.cpp:124:             if ( !m_GB.is_cgb_ ) {
	.loc 16 124 24
	movzx	eax, BYTE PTR [rax+272]	# _8, _7->is_cgb_
# GPU.cpp:124:             if ( !m_GB.is_cgb_ ) {
	.loc 16 124 18
	xor	eax, 1	# _9,
# GPU.cpp:124:             if ( !m_GB.is_cgb_ ) {
	.loc 16 124 13
	test	al, al	# _9
	je	.L167	#,
# GPU.cpp:125:                 mBGPalette = val;
	.loc 16 125 28
	mov	rax, QWORD PTR [rbp-456]	# tmp159, this
	movzx	edx, BYTE PTR [rbp-464]	# tmp160, val
	mov	BYTE PTR [rax+92265], dl	# this_65(D)->mBGPalette, tmp160
# GPU.cpp:126:                 update_bg_palette();
	.loc 16 126 34
	mov	rax, QWORD PTR [rbp-456]	# tmp161, this
	mov	rdi, rax	#, tmp161
	call	_ZN2gb8graphics3GPU17update_bg_paletteEv	#
# GPU.cpp:128:             break;
	.loc 16 128 13
	jmp	.L167	#
.L144:
# GPU.cpp:130:             if ( !m_GB.is_cgb_ ) {
	.loc 16 130 19
	mov	rax, QWORD PTR [rbp-456]	# tmp162, this
	mov	rax, QWORD PTR [rax]	# _10, this_65(D)->m_GB
# GPU.cpp:130:             if ( !m_GB.is_cgb_ ) {
	.loc 16 130 24
	movzx	eax, BYTE PTR [rax+272]	# _11, _10->is_cgb_
# GPU.cpp:130:             if ( !m_GB.is_cgb_ ) {
	.loc 16 130 18
	xor	eax, 1	# _12,
# GPU.cpp:130:             if ( !m_GB.is_cgb_ ) {
	.loc 16 130 13
	test	al, al	# _12
	je	.L168	#,
# GPU.cpp:131:                 mObjPal0 = val;
	.loc 16 131 26
	mov	rax, QWORD PTR [rbp-456]	# tmp163, this
	movzx	edx, BYTE PTR [rbp-464]	# tmp164, val
	mov	BYTE PTR [rax+92266], dl	# this_65(D)->mObjPal0, tmp164
# GPU.cpp:132:                 update_obj0_palette();
	.loc 16 132 36
	mov	rax, QWORD PTR [rbp-456]	# tmp165, this
	mov	rdi, rax	#, tmp165
	call	_ZN2gb8graphics3GPU19update_obj0_paletteEv	#
# GPU.cpp:134:             break;
	.loc 16 134 13
	jmp	.L168	#
.L143:
# GPU.cpp:136:             if ( !m_GB.is_cgb_ ) {
	.loc 16 136 19
	mov	rax, QWORD PTR [rbp-456]	# tmp166, this
	mov	rax, QWORD PTR [rax]	# _13, this_65(D)->m_GB
# GPU.cpp:136:             if ( !m_GB.is_cgb_ ) {
	.loc 16 136 24
	movzx	eax, BYTE PTR [rax+272]	# _14, _13->is_cgb_
# GPU.cpp:136:             if ( !m_GB.is_cgb_ ) {
	.loc 16 136 18
	xor	eax, 1	# _15,
# GPU.cpp:136:             if ( !m_GB.is_cgb_ ) {
	.loc 16 136 13
	test	al, al	# _15
	je	.L169	#,
# GPU.cpp:137:                 mObjPal1 = val;
	.loc 16 137 26
	mov	rax, QWORD PTR [rbp-456]	# tmp167, this
	movzx	edx, BYTE PTR [rbp-464]	# tmp168, val
	mov	BYTE PTR [rax+92267], dl	# this_65(D)->mObjPal1, tmp168
# GPU.cpp:138:                 update_obj1_palette();
	.loc 16 138 36
	mov	rax, QWORD PTR [rbp-456]	# tmp169, this
	mov	rdi, rax	#, tmp169
	call	_ZN2gb8graphics3GPU19update_obj1_paletteEv	#
# GPU.cpp:140:             break;
	.loc 16 140 13
	jmp	.L169	#
.L142:
# GPU.cpp:142:             mWindowY = val;
	.loc 16 142 22
	mov	rax, QWORD PTR [rbp-456]	# tmp170, this
	movzx	edx, BYTE PTR [rbp-464]	# tmp171, val
	mov	BYTE PTR [rax+92264], dl	# this_65(D)->mWindowY, tmp171
# GPU.cpp:143:             break;
	.loc 16 143 13
	jmp	.L153	#
.L141:
# GPU.cpp:145:             mWindowX = val;
	.loc 16 145 22
	mov	rax, QWORD PTR [rbp-456]	# tmp172, this
	movzx	edx, BYTE PTR [rbp-464]	# tmp173, val
	mov	BYTE PTR [rax+92263], dl	# this_65(D)->mWindowX, tmp173
# GPU.cpp:146:             break;
	.loc 16 146 13
	jmp	.L153	#
.L140:
# GPU.cpp:148:             mVRAMBank = val & 1;
	.loc 16 148 29
	movzx	eax, BYTE PTR [rbp-464]	# tmp174, val
	and	eax, 1	# tmp174,
	mov	edx, eax	# _16, tmp174
# GPU.cpp:148:             mVRAMBank = val & 1;
	.loc 16 148 23
	mov	rax, QWORD PTR [rbp-456]	# tmp175, this
	mov	BYTE PTR [rax+92269], dl	# this_65(D)->mVRAMBank, _16
# GPU.cpp:149:             break;
	.loc 16 149 13
	jmp	.L153	#
.L139:
# GPU.cpp:151:             mHDMASourceHi = val;
	.loc 16 151 27
	mov	rax, QWORD PTR [rbp-456]	# tmp176, this
	movzx	edx, BYTE PTR [rbp-464]	# tmp177, val
	mov	BYTE PTR [rax+92493], dl	# this_65(D)->mHDMASourceHi, tmp177
# GPU.cpp:152:             break;
	.loc 16 152 13
	jmp	.L153	#
.L138:
# GPU.cpp:154:             mHDMASourceLo = val;
	.loc 16 154 27
	mov	rax, QWORD PTR [rbp-456]	# tmp178, this
	movzx	edx, BYTE PTR [rbp-464]	# tmp179, val
	mov	BYTE PTR [rax+92492], dl	# this_65(D)->mHDMASourceLo, tmp179
# GPU.cpp:155:             break;
	.loc 16 155 13
	jmp	.L153	#
.L137:
# GPU.cpp:157:             mHDMADestHi = val;
	.loc 16 157 25
	mov	rax, QWORD PTR [rbp-456]	# tmp180, this
	movzx	edx, BYTE PTR [rbp-464]	# tmp181, val
	mov	BYTE PTR [rax+92495], dl	# this_65(D)->mHDMADestHi, tmp181
# GPU.cpp:158:             break;
	.loc 16 158 13
	jmp	.L153	#
.L136:
# GPU.cpp:160:             mHDMADestLo = val;
	.loc 16 160 25
	mov	rax, QWORD PTR [rbp-456]	# tmp182, this
	movzx	edx, BYTE PTR [rbp-464]	# tmp183, val
	mov	BYTE PTR [rax+92494], dl	# this_65(D)->mHDMADestLo, tmp183
# GPU.cpp:161:             break;
	.loc 16 161 13
	jmp	.L153	#
.L135:
# GPU.cpp:163:             if ( !mHDMARunning ) {
	.loc 16 163 19
	mov	rax, QWORD PTR [rbp-456]	# tmp184, this
	movzx	eax, BYTE PTR [rax+92497]	# _17, this_65(D)->mHDMARunning
# GPU.cpp:163:             if ( !mHDMARunning ) {
	.loc 16 163 18
	xor	eax, 1	# _18,
# GPU.cpp:163:             if ( !mHDMARunning ) {
	.loc 16 163 13
	test	al, al	# _18
	je	.L170	#,
# GPU.cpp:164:                 mHDMALenMode.val = val;
	.loc 16 164 34
	mov	rax, QWORD PTR [rbp-456]	# tmp185, this
	movzx	edx, BYTE PTR [rbp-464]	# tmp186, val
	mov	BYTE PTR [rax+92496], dl	# this_65(D)->mHDMALenMode.val, tmp186
# GPU.cpp:165:                 if ( mHDMALenMode.type == 0 )
	.loc 16 165 40
	mov	rax, QWORD PTR [rbp-456]	# tmp187, this
	movzx	eax, BYTE PTR [rax+92496]	# _19, this_65(D)->mHDMALenMode.D.78845
	and	eax, -128	# _20,
# GPU.cpp:165:                 if ( mHDMALenMode.type == 0 )
	.loc 16 165 17
	test	al, al	# _20
	jne	.L158	#,
# GPU.cpp:166:                     launch_gp_hdma();
	.loc 16 166 35
	mov	rax, QWORD PTR [rbp-456]	# tmp188, this
	mov	rdi, rax	#, tmp188
	call	_ZN2gb8graphics3GPU14launch_gp_hdmaEv	#
# GPU.cpp:172:             break;
	.loc 16 172 13
	jmp	.L170	#
.L158:
# GPU.cpp:168:                     mHDMARunning = true;
	.loc 16 168 34
	mov	rax, QWORD PTR [rbp-456]	# tmp189, this
	mov	BYTE PTR [rax+92497], 1	# this_65(D)->mHDMARunning,
# GPU.cpp:169:                     mHDMALenMode.type = 0;
	.loc 16 169 39
	mov	rax, QWORD PTR [rbp-456]	# tmp190, this
	movzx	edx, BYTE PTR [rax+92496]	# tmp193, this_65(D)->mHDMALenMode.D.78845.type
	and	edx, 127	# tmp194,
	mov	BYTE PTR [rax+92496], dl	# this_65(D)->mHDMALenMode.D.78845.type, tmp194
# GPU.cpp:172:             break;
	.loc 16 172 13
	jmp	.L170	#
.L134:
# GPU.cpp:174:             mBCPS.val = val;
	.loc 16 174 23
	mov	rax, QWORD PTR [rbp-456]	# tmp195, this
	movzx	edx, BYTE PTR [rbp-464]	# tmp196, val
	mov	BYTE PTR [rax+92498], dl	# this_65(D)->mBCPS.val, tmp196
# GPU.cpp:175:             break;
	.loc 16 175 13
	jmp	.L153	#
.L133:
# GPU.cpp:177:             mBCPD.set_byte(val, mBCPS.index);
	.loc 16 177 27
	mov	rax, QWORD PTR [rbp-456]	# tmp197, this
	lea	rcx, [rax+92500]	# _21,
# GPU.cpp:177:             mBCPD.set_byte(val, mBCPS.index);
	.loc 16 177 39
	mov	rax, QWORD PTR [rbp-456]	# tmp198, this
	movzx	eax, BYTE PTR [rax+92498]	# tmp200, *this_65(D)
	and	eax, 63	# _22,
# GPU.cpp:177:             mBCPD.set_byte(val, mBCPS.index);
	.loc 16 177 27
	movzx	edx, al	# _23, _22
	movzx	eax, BYTE PTR [rbp-464]	# _24, val
	mov	esi, eax	#, _24
	mov	rdi, rcx	#, _21
	call	_ZN10CGBPalette8set_byteEhi	#
# GPU.cpp:178:             mBCPD.update(mBCPS.index >> 3);
	.loc 16 178 25
	mov	rax, QWORD PTR [rbp-456]	# tmp201, this
	add	rax, 92500	# _25,
# GPU.cpp:178:             mBCPD.update(mBCPS.index >> 3);
	.loc 16 178 32
	mov	rdx, QWORD PTR [rbp-456]	# tmp202, this
	movzx	edx, BYTE PTR [rdx+92498]	# tmp204, *this_65(D)
	and	edx, 63	# _26,
	movzx	edx, dl	# _27, _26
# GPU.cpp:178:             mBCPD.update(mBCPS.index >> 3);
	.loc 16 178 25
	sar	edx, 3	# _28,
	mov	esi, edx	#, _28
	mov	rdi, rax	#, _25
	call	_ZN10CGBPalette6updateEi	#
# GPU.cpp:179:             if ( mBCPS.auto_increment )
	.loc 16 179 24
	mov	rax, QWORD PTR [rbp-456]	# tmp205, this
	movzx	eax, BYTE PTR [rax+92498]	# _29, this_65(D)->mBCPS.D.78857
	and	eax, -128	# _30,
# GPU.cpp:179:             if ( mBCPS.auto_increment )
	.loc 16 179 13
	test	al, al	# _30
	je	.L171	#,
# GPU.cpp:180:                 mBCPS.index = (mBCPS.index + 1) & 0x3F;
	.loc 16 180 38
	mov	rax, QWORD PTR [rbp-456]	# tmp206, this
	movzx	eax, BYTE PTR [rax+92498]	# tmp208, *this_65(D)
	and	eax, 63	# _31,
# GPU.cpp:180:                 mBCPS.index = (mBCPS.index + 1) & 0x3F;
	.loc 16 180 44
	add	eax, 1	# _33,
# GPU.cpp:180:                 mBCPS.index = (mBCPS.index + 1) & 0x3F;
	.loc 16 180 29
	and	eax, 63	# _33,
	mov	edx, eax	# _34, _33
	mov	rax, QWORD PTR [rbp-456]	# tmp209, this
	mov	ecx, edx	# _34, _34
	and	ecx, 63	# _34,
	movzx	edx, BYTE PTR [rax+92498]	# tmp212, this_65(D)->mBCPS.D.78857.index
	and	edx, -64	# tmp213,
	or	edx, ecx	# tmp214, tmp211
	mov	BYTE PTR [rax+92498], dl	# this_65(D)->mBCPS.D.78857.index, tmp214
# GPU.cpp:181:             break;
	.loc 16 181 13
	jmp	.L171	#
.L132:
# GPU.cpp:183:             mOCPS.val = val;
	.loc 16 183 23
	mov	rax, QWORD PTR [rbp-456]	# tmp215, this
	movzx	edx, BYTE PTR [rbp-464]	# tmp216, val
	mov	BYTE PTR [rax+92692], dl	# this_65(D)->mOCPS.val, tmp216
# GPU.cpp:184:             break;
	.loc 16 184 13
	jmp	.L153	#
.L130:
# GPU.cpp:186:             m_OCPD.set_byte(val, mOCPS.index);
	.loc 16 186 28
	mov	rax, QWORD PTR [rbp-456]	# tmp217, this
	lea	rcx, [rax+92696]	# _35,
# GPU.cpp:186:             m_OCPD.set_byte(val, mOCPS.index);
	.loc 16 186 40
	mov	rax, QWORD PTR [rbp-456]	# tmp218, this
	movzx	eax, BYTE PTR [rax+92692]	# tmp220, *this_65(D)
	and	eax, 63	# _36,
# GPU.cpp:186:             m_OCPD.set_byte(val, mOCPS.index);
	.loc 16 186 28
	movzx	edx, al	# _37, _36
	movzx	eax, BYTE PTR [rbp-464]	# _38, val
	mov	esi, eax	#, _38
	mov	rdi, rcx	#, _35
	call	_ZN10CGBPalette8set_byteEhi	#
# GPU.cpp:187:             m_OCPD.update(mOCPS.index >> 3);
	.loc 16 187 26
	mov	rax, QWORD PTR [rbp-456]	# tmp221, this
	add	rax, 92696	# _39,
# GPU.cpp:187:             m_OCPD.update(mOCPS.index >> 3);
	.loc 16 187 33
	mov	rdx, QWORD PTR [rbp-456]	# tmp222, this
	movzx	edx, BYTE PTR [rdx+92692]	# tmp224, *this_65(D)
	and	edx, 63	# _40,
	movzx	edx, dl	# _41, _40
# GPU.cpp:187:             m_OCPD.update(mOCPS.index >> 3);
	.loc 16 187 26
	sar	edx, 3	# _42,
	mov	esi, edx	#, _42
	mov	rdi, rax	#, _39
	call	_ZN10CGBPalette6updateEi	#
.LEHE8:
# GPU.cpp:188:             if ( mOCPS.auto_increment )
	.loc 16 188 24
	mov	rax, QWORD PTR [rbp-456]	# tmp225, this
	movzx	eax, BYTE PTR [rax+92692]	# _43, this_65(D)->mOCPS.D.78869
	and	eax, -128	# _44,
# GPU.cpp:188:             if ( mOCPS.auto_increment )
	.loc 16 188 13
	test	al, al	# _44
	je	.L172	#,
# GPU.cpp:189:                 mOCPS.index = (mOCPS.index + 1) & 0x3F;
	.loc 16 189 38
	mov	rax, QWORD PTR [rbp-456]	# tmp226, this
	movzx	eax, BYTE PTR [rax+92692]	# tmp228, *this_65(D)
	and	eax, 63	# _45,
# GPU.cpp:189:                 mOCPS.index = (mOCPS.index + 1) & 0x3F;
	.loc 16 189 44
	add	eax, 1	# _47,
# GPU.cpp:189:                 mOCPS.index = (mOCPS.index + 1) & 0x3F;
	.loc 16 189 29
	and	eax, 63	# _47,
	mov	edx, eax	# _48, _47
	mov	rax, QWORD PTR [rbp-456]	# tmp229, this
	mov	ecx, edx	# _48, _48
	and	ecx, 63	# _48,
	movzx	edx, BYTE PTR [rax+92692]	# tmp232, this_65(D)->mOCPS.D.78869.index
	and	edx, -64	# tmp233,
	or	edx, ecx	# tmp234, tmp231
	mov	BYTE PTR [rax+92692], dl	# this_65(D)->mOCPS.D.78869.index, tmp234
# GPU.cpp:190:             break;
	.loc 16 190 13
	jmp	.L172	#
.L129:
.LBB52:
# GPU.cpp:192:             std::ostringstream s("Writing to unknown GPU register at $");
	.loc 16 192 72
	lea	rax, [rbp-17]	# tmp235,
	mov	rdi, rax	#, tmp235
	call	_ZNSaIcEC1Ev	#
	lea	rdx, [rbp-17]	# tmp236,
	lea	rax, [rbp-64]	# tmp237,
	mov	esi, OFFSET FLAT:.LC0	#,
	mov	rdi, rax	#, tmp237
.LEHB9:
	call	_ZNSt7__cxx1112basic_stringIcSt11char_traitsIcESaIcEEC1IS3_EEPKcRKS3_	#
.LEHE9:
# GPU.cpp:192:             std::ostringstream s("Writing to unknown GPU register at $");
	.loc 16 192 72 is_stmt 0 discriminator 1
	lea	rcx, [rbp-64]	# tmp238,
	lea	rax, [rbp-448]	# tmp239,
	mov	edx, 16	#,
	mov	rsi, rcx	#, tmp238
	mov	rdi, rax	#, tmp239
.LEHB10:
	call	_ZNSt7__cxx1119basic_ostringstreamIcSt11char_traitsIcESaIcEEC1ERKNS_12basic_stringIcS2_S3_EESt13_Ios_Openmode	#
.LEHE10:
	lea	rax, [rbp-64]	# tmp240,
	mov	rdi, rax	#, tmp240
	call	_ZNSt7__cxx1112basic_stringIcSt11char_traitsIcESaIcEED1Ev	#
	lea	rax, [rbp-17]	# tmp241,
	mov	rdi, rax	#, tmp241
	call	_ZNSaIcED1Ev	#
# GPU.cpp:193:             s << std::hex << addr;
	.loc 16 193 23 is_stmt 1
	lea	rax, [rbp-448]	# tmp242,
	mov	esi, OFFSET FLAT:_ZSt3hexRSt8ios_base	#,
	mov	rdi, rax	#, tmp242
.LEHB11:
	call	_ZNSolsEPFRSt8ios_baseS0_E	#
	mov	rdx, rax	# _49,
# GPU.cpp:193:             s << std::hex << addr;
	.loc 16 193 30
	movzx	eax, WORD PTR [rbp-460]	# _50, addr
	mov	esi, eax	#, _50
	mov	rdi, rdx	#, _49
	call	_ZNSolsEt	#
# GPU.cpp:194:             s << " value 0x" << std::hex << val;
	.loc 16 194 18
	lea	rax, [rbp-448]	# tmp243,
	mov	esi, OFFSET FLAT:.LC1	#,
	mov	rdi, rax	#, tmp243
	call	_ZStlsISt11char_traitsIcEERSt13basic_ostreamIcT_ES5_PKc	#
# GPU.cpp:194:             s << " value 0x" << std::hex << val;
	.loc 16 194 38
	mov	esi, OFFSET FLAT:_ZSt3hexRSt8ios_base	#,
	mov	rdi, rax	#, _51
	call	_ZNSolsEPFRSt8ios_baseS0_E	#
# GPU.cpp:194:             s << " value 0x" << std::hex << val;
	.loc 16 194 38 is_stmt 0 discriminator 1
	mov	rdx, rax	# _52,
# GPU.cpp:194:             s << " value 0x" << std::hex << val;
	.loc 16 194 45 is_stmt 1 discriminator 1
	movzx	eax, BYTE PTR [rbp-464]	# _53, val
	mov	esi, eax	#, _53
	mov	rdi, rdx	#, _52
	call	_ZStlsISt11char_traitsIcEERSt13basic_ostreamIcT_ES5_h	#
.LEHE11:
# GPU.cpp:195:             break;
	.loc 16 195 13
	nop	
# GPU.cpp:192:             std::ostringstream s("Writing to unknown GPU register at $");
	.loc 16 192 72
	lea	rax, [rbp-448]	# tmp244,
	mov	rdi, rax	#, tmp244
	call	_ZNSt7__cxx1119basic_ostringstreamIcSt11char_traitsIcESaIcEED1Ev	#
.LBE52:
.LBE51:
.LBE50:
# GPU.cpp:197: }
	.loc 16 197 1
	jmp	.L128	#
.L167:
.LBB56:
.LBB54:
# GPU.cpp:128:             break;
	.loc 16 128 13
	nop	
	jmp	.L128	#
.L168:
# GPU.cpp:134:             break;
	.loc 16 134 13
	nop	
	jmp	.L128	#
.L169:
# GPU.cpp:140:             break;
	.loc 16 140 13
	nop	
	jmp	.L128	#
.L170:
# GPU.cpp:172:             break;
	.loc 16 172 13
	nop	
	jmp	.L128	#
.L171:
# GPU.cpp:181:             break;
	.loc 16 181 13
	nop	
	jmp	.L128	#
.L172:
# GPU.cpp:190:             break;
	.loc 16 190 13
	nop	
.L153:
.LBE54:
.LBE56:
# GPU.cpp:197: }
	.loc 16 197 1 discriminator 5
	jmp	.L128	#
.L165:
.LBB57:
.LBB55:
.LBB53:
	mov	rbx, rax	# tmp247,
	lea	rax, [rbp-64]	# tmp245,
	mov	rdi, rax	#, tmp245
	call	_ZNSt7__cxx1112basic_stringIcSt11char_traitsIcESaIcEED1Ev	#
	jmp	.L162	#
.L164:
	mov	rbx, rax	# tmp246,
.L162:
	lea	rax, [rbp-17]	# tmp250,
	mov	rdi, rax	#, tmp250
	call	_ZNSaIcED1Ev	#
	mov	rax, rbx	# D.184494, tmp246
	mov	rdi, rax	#, D.184494
.LEHB12:
	call	_Unwind_Resume	#
.L166:
# GPU.cpp:192:             std::ostringstream s("Writing to unknown GPU register at $");
	.loc 16 192 72
	mov	rbx, rax	# tmp252,
	lea	rax, [rbp-448]	# tmp251,
	mov	rdi, rax	#, tmp251
	call	_ZNSt7__cxx1119basic_ostringstreamIcSt11char_traitsIcESaIcEED1Ev	#
	mov	rax, rbx	# D.184495, tmp252
	mov	rdi, rax	#, D.184495
	call	_Unwind_Resume	#
.LEHE12:
.L128:
.LBE53:
.LBE55:
.LBE57:
# GPU.cpp:197: }
	.loc 16 197 1
	mov	rbx, QWORD PTR [rbp-8]	#,
	leave	
	.cfi_def_cfa 7, 8
	ret	
	.cfi_endproc
.LFE6137:
	.section	.gcc_except_table
.LLSDA6137:
	.byte	0xff
	.byte	0xff
	.byte	0x1
	.uleb128 .LLSDACSE6137-.LLSDACSB6137
.LLSDACSB6137:
	.uleb128 .LEHB8-.LFB6137
	.uleb128 .LEHE8-.LEHB8
	.uleb128 0
	.uleb128 0
	.uleb128 .LEHB9-.LFB6137
	.uleb128 .LEHE9-.LEHB9
	.uleb128 .L164-.LFB6137
	.uleb128 0
	.uleb128 .LEHB10-.LFB6137
	.uleb128 .LEHE10-.LEHB10
	.uleb128 .L165-.LFB6137
	.uleb128 0
	.uleb128 .LEHB11-.LFB6137
	.uleb128 .LEHE11-.LEHB11
	.uleb128 .L166-.LFB6137
	.uleb128 0
	.uleb128 .LEHB12-.LFB6137
	.uleb128 .LEHE12-.LEHB12
	.uleb128 0
	.uleb128 0
.LLSDACSE6137:
	.text
	.size	_ZN2gb8graphics3GPU4sendEth, .-_ZN2gb8graphics3GPU4sendEth
	.align 2
	.globl	_ZN2gb8graphics3GPU12render_pixelEv
	.type	_ZN2gb8graphics3GPU12render_pixelEv, @function
_ZN2gb8graphics3GPU12render_pixelEv:
.LFB6138:
	.loc 16 199 40
	.cfi_startproc
	push	rbp	#
	.cfi_def_cfa_offset 16
	.cfi_offset 6, -16
	mov	rbp, rsp	#,
	.cfi_def_cfa_register 6
	push	r12	#
	push	rbx	#
	sub	rsp, 48	#,
	.cfi_offset 12, -24
	.cfi_offset 3, -32
	mov	QWORD PTR [rbp-56], rdi	# this, this
# GPU.cpp:200:     if ( pxl_fetcher.is_rendering_sprites() )
	.loc 16 200 42
	mov	rax, QWORD PTR [rbp-56]	# tmp169, this
	add	rax, 92432	# _1,
	mov	rdi, rax	#, _1
	call	_ZN2gb8graphics3GPU13Pixel_fetcher20is_rendering_spritesEv	#
# GPU.cpp:200:     if ( pxl_fetcher.is_rendering_sprites() )
	.loc 16 200 5
	test	al, al	# retval.34_101
	jne	.L197	#,
.LBB58:
# GPU.cpp:202:     if ( !rendering_window && is_window_visible() ) {
	.loc 16 202 11
	mov	rax, QWORD PTR [rbp-56]	# tmp170, this
	movzx	eax, BYTE PTR [rax+92270]	# _2, this_98(D)->rendering_window
# GPU.cpp:202:     if ( !rendering_window && is_window_visible() ) {
	.loc 16 202 10
	xor	eax, 1	# _3,
# GPU.cpp:202:     if ( !rendering_window && is_window_visible() ) {
	.loc 16 202 28
	test	al, al	# _3
	je	.L176	#,
# GPU.cpp:202:     if ( !rendering_window && is_window_visible() ) {
	.loc 16 202 48 discriminator 1
	mov	rax, QWORD PTR [rbp-56]	# tmp171, this
	mov	rdi, rax	#, tmp171
	call	_ZN2gb8graphics3GPU17is_window_visibleEv	#
# GPU.cpp:202:     if ( !rendering_window && is_window_visible() ) {
	.loc 16 202 28 discriminator 1
	test	al, al	# _4
	je	.L176	#,
# GPU.cpp:202:     if ( !rendering_window && is_window_visible() ) {
	.loc 16 202 28 is_stmt 0 discriminator 3
	mov	eax, 1	# iftmp.36_83,
	jmp	.L177	#
.L176:
# GPU.cpp:202:     if ( !rendering_window && is_window_visible() ) {
	.loc 16 202 28 discriminator 4
	mov	eax, 0	# iftmp.36_83,
.L177:
# GPU.cpp:202:     if ( !rendering_window && is_window_visible() ) {
	.loc 16 202 5 is_stmt 1 discriminator 6
	test	al, al	# iftmp.36_83
	je	.L178	#,
.LBB59:
# GPU.cpp:204:         x_ = current_pixel_ - (mWindowX - 7);
	.loc 16 204 14
	mov	rax, QWORD PTR [rbp-56]	# tmp172, this
	mov	eax, DWORD PTR [rax+92972]	# _5, this_98(D)->current_pixel_
# GPU.cpp:204:         x_ = current_pixel_ - (mWindowX - 7);
	.loc 16 204 29
	mov	ecx, eax	# _6, _5
# GPU.cpp:204:         x_ = current_pixel_ - (mWindowX - 7);
	.loc 16 204 32
	mov	rax, QWORD PTR [rbp-56]	# tmp173, this
	movzx	edx, BYTE PTR [rax+92263]	# _7, this_98(D)->mWindowX
# GPU.cpp:204:         x_ = current_pixel_ - (mWindowX - 7);
	.loc 16 204 29
	mov	eax, ecx	# _6, _6
	sub	eax, edx	# _6, _7
# GPU.cpp:204:         x_ = current_pixel_ - (mWindowX - 7);
	.loc 16 204 12
	add	eax, 7	# tmp174,
	mov	BYTE PTR [rbp-34], al	# x_, tmp174
# GPU.cpp:205:         y_ = internal_window_counter;
	.loc 16 205 12
	mov	rax, QWORD PTR [rbp-56]	# tmp175, this
	movzx	eax, BYTE PTR [rax+92271]	# tmp176, this_98(D)->internal_window_counter
	mov	BYTE PTR [rbp-35], al	# y_, tmp176
# GPU.cpp:206:         pxl_fetcher.reset(x_, y_, true);
	.loc 16 206 26
	mov	rax, QWORD PTR [rbp-56]	# tmp177, this
	lea	rdi, [rax+92432]	# _9,
	movzx	edx, BYTE PTR [rbp-35]	# _10, y_
	movzx	eax, BYTE PTR [rbp-34]	# _11, x_
	mov	ecx, 1	#,
	mov	esi, eax	#, _11
	call	_ZN2gb8graphics3GPU13Pixel_fetcher5resetEhhb	#
# GPU.cpp:207:         while ( !bg_fifo.empty() )
	.loc 16 207 9
	jmp	.L179	#
.L180:
# GPU.cpp:208:             bg_fifo.pop();
	.loc 16 208 24
	mov	rax, QWORD PTR [rbp-56]	# tmp178, this
	add	rax, 92272	# _12,
	mov	rdi, rax	#, _12
	call	_ZNSt5queueIjSt5dequeIjSaIjEEE3popEv	#
.L179:
# GPU.cpp:207:         while ( !bg_fifo.empty() )
	.loc 16 207 31
	mov	rax, QWORD PTR [rbp-56]	# tmp179, this
	add	rax, 92272	# _13,
	mov	rdi, rax	#, _13
	call	_ZNKSt5queueIjSt5dequeIjSaIjEEE5emptyEv	#
# GPU.cpp:207:         while ( !bg_fifo.empty() )
	.loc 16 207 17
	xor	eax, 1	# retval.37_153,
	test	al, al	# retval.37_153
	jne	.L180	#,
# GPU.cpp:209:         rendering_window = true;
	.loc 16 209 26
	mov	rax, QWORD PTR [rbp-56]	# tmp180, this
	mov	BYTE PTR [rax+92270], 1	# this_98(D)->rendering_window,
# GPU.cpp:210:         return;
	.loc 16 210 9
	jmp	.L173	#
.L178:
.LBE59:
.LBE58:
.LBB60:
# GPU.cpp:212:     if ( mLCDC.obj_enable ) {
	.loc 16 212 16
	mov	rax, QWORD PTR [rbp-56]	# tmp181, this
	movzx	eax, BYTE PTR [rax+92257]	# _15, this_98(D)->mLCDC.D.75647
	and	eax, 2	# _16,
# GPU.cpp:212:     if ( mLCDC.obj_enable ) {
	.loc 16 212 5
	test	al, al	# _16
	je	.L181	#,
.LBB61:
# GPU.cpp:213:         unsigned int s_index = 0;
	.loc 16 213 22
	mov	DWORD PTR [rbp-20], 0	# s_index,
# GPU.cpp:214:         for (s_index = 0; s_index < sprites.size(); s_index++) {
	.loc 16 214 22
	mov	DWORD PTR [rbp-20], 0	# s_index,
# GPU.cpp:214:         for (s_index = 0; s_index < sprites.size(); s_index++) {
	.loc 16 214 9
	jmp	.L182	#
.L186:
# GPU.cpp:215:             if (sprites[s_index]._removed) continue;
	.loc 16 215 32
	mov	rax, QWORD PTR [rbp-56]	# tmp182, this
	lea	rdx, [rax+24]	# _17,
	mov	eax, DWORD PTR [rbp-20]	# _18, s_index
	mov	rsi, rax	#, _18
	mov	rdi, rdx	#, _17
	call	_ZNSt6vectorI6spriteSaIS0_EEixEm	#
# GPU.cpp:215:             if (sprites[s_index]._removed) continue;
	.loc 16 215 34
	movzx	eax, BYTE PTR [rax+5]	# retval.38_111, _19->_removed
# GPU.cpp:215:             if (sprites[s_index]._removed) continue;
	.loc 16 215 13
	test	al, al	# retval.38_111
	jne	.L198	#,
# GPU.cpp:216:             if (current_pixel_ >= sprites[s_index].x - 8 ) {
	.loc 16 216 17
	mov	rax, QWORD PTR [rbp-56]	# tmp183, this
	mov	ebx, DWORD PTR [rax+92972]	# _20, this_98(D)->current_pixel_
# GPU.cpp:216:             if (current_pixel_ >= sprites[s_index].x - 8 ) {
	.loc 16 216 50
	mov	rax, QWORD PTR [rbp-56]	# tmp184, this
	lea	rdx, [rax+24]	# _21,
	mov	eax, DWORD PTR [rbp-20]	# _22, s_index
	mov	rsi, rax	#, _22
	mov	rdi, rdx	#, _21
	call	_ZNSt6vectorI6spriteSaIS0_EEixEm	#
# GPU.cpp:216:             if (current_pixel_ >= sprites[s_index].x - 8 ) {
	.loc 16 216 52
	movzx	eax, BYTE PTR [rax+2]	# _24, _23->x
	movzx	eax, al	# _25, _24
# GPU.cpp:216:             if (current_pixel_ >= sprites[s_index].x - 8 ) {
	.loc 16 216 54
	sub	eax, 8	# _26,
# GPU.cpp:216:             if (current_pixel_ >= sprites[s_index].x - 8 ) {
	.loc 16 216 32
	cmp	ebx, eax	# _20, _26
	setge	al	#, retval.39_113
# GPU.cpp:216:             if (current_pixel_ >= sprites[s_index].x - 8 ) {
	.loc 16 216 13
	test	al, al	# retval.39_113
	je	.L184	#,
# GPU.cpp:217:                 if ( bg_fifo.size() >= 8 ) {
	.loc 16 217 34
	mov	rax, QWORD PTR [rbp-56]	# tmp185, this
	add	rax, 92272	# _27,
	mov	rdi, rax	#, _27
	call	_ZNKSt5queueIjSt5dequeIjSaIjEEE4sizeEv	#
# GPU.cpp:217:                 if ( bg_fifo.size() >= 8 ) {
	.loc 16 217 37
	cmp	rax, 7	# _28,
	seta	al	#, retval.40_115
# GPU.cpp:217:                 if ( bg_fifo.size() >= 8 ) {
	.loc 16 217 17
	test	al, al	# retval.40_115
	je	.L199	#,
# GPU.cpp:218:                     pxl_fetcher.start_sprite_fetch(sprites[s_index], m_LY);
	.loc 16 218 51
	mov	rax, QWORD PTR [rbp-56]	# tmp186, this
	lea	r12, [rax+92432]	# _29,
# GPU.cpp:218:                     pxl_fetcher.start_sprite_fetch(sprites[s_index], m_LY);
	.loc 16 218 70
	mov	rax, QWORD PTR [rbp-56]	# tmp187, this
	movzx	eax, BYTE PTR [rax+92261]	# _30, this_98(D)->m_LY
# GPU.cpp:218:                     pxl_fetcher.start_sprite_fetch(sprites[s_index], m_LY);
	.loc 16 218 51
	movzx	ebx, al	# _31, _30
# GPU.cpp:218:                     pxl_fetcher.start_sprite_fetch(sprites[s_index], m_LY);
	.loc 16 218 67
	mov	rax, QWORD PTR [rbp-56]	# tmp188, this
	lea	rdx, [rax+24]	# _32,
	mov	eax, DWORD PTR [rbp-20]	# _33, s_index
	mov	rsi, rax	#, _33
	mov	rdi, rdx	#, _32
	call	_ZNSt6vectorI6spriteSaIS0_EEixEm	#
# GPU.cpp:218:                     pxl_fetcher.start_sprite_fetch(sprites[s_index], m_LY);
	.loc 16 218 51
	mov	edx, ebx	#, _31
	mov	rsi, rax	#, _34
	mov	rdi, r12	#, _29
	call	_ZN2gb8graphics3GPU13Pixel_fetcher18start_sprite_fetchER6spriteh	#
# GPU.cpp:219:                     sprites[s_index]._removed = true;
	.loc 16 219 36
	mov	rax, QWORD PTR [rbp-56]	# tmp189, this
	lea	rdx, [rax+24]	# _35,
	mov	eax, DWORD PTR [rbp-20]	# _36, s_index
	mov	rsi, rax	#, _36
	mov	rdi, rdx	#, _35
	call	_ZNSt6vectorI6spriteSaIS0_EEixEm	#
# GPU.cpp:219:                     sprites[s_index]._removed = true;
	.loc 16 219 47
	mov	BYTE PTR [rax+5], 1	# _37->_removed,
# GPU.cpp:221:                 return;
	.loc 16 221 17
	jmp	.L199	#
.L198:
# GPU.cpp:215:             if (sprites[s_index]._removed) continue;
	.loc 16 215 44
	nop	
.L184:
# GPU.cpp:214:         for (s_index = 0; s_index < sprites.size(); s_index++) {
	.loc 16 214 9 discriminator 2
	add	DWORD PTR [rbp-20], 1	# s_index,
.L182:
# GPU.cpp:214:         for (s_index = 0; s_index < sprites.size(); s_index++) {
	.loc 16 214 27 discriminator 1
	mov	ebx, DWORD PTR [rbp-20]	# _38, s_index
# GPU.cpp:214:         for (s_index = 0; s_index < sprites.size(); s_index++) {
	.loc 16 214 49 discriminator 1
	mov	rax, QWORD PTR [rbp-56]	# tmp190, this
	add	rax, 24	# _39,
	mov	rdi, rax	#, _39
	call	_ZNKSt6vectorI6spriteSaIS0_EE4sizeEv	#
# GPU.cpp:214:         for (s_index = 0; s_index < sprites.size(); s_index++) {
	.loc 16 214 35 discriminator 1
	cmp	rbx, rax	# _38, _40
	setb	al	#, retval.41_109
	test	al, al	# retval.41_109
	jne	.L186	#,
.L181:
.LBE61:
.LBE60:
.LBB63:
# GPU.cpp:225:     if ( !bg_fifo.empty() ) {
	.loc 16 225 24
	mov	rax, QWORD PTR [rbp-56]	# tmp191, this
	add	rax, 92272	# _41,
	mov	rdi, rax	#, _41
	call	_ZNKSt5queueIjSt5dequeIjSaIjEEE5emptyEv	#
# GPU.cpp:225:     if ( !bg_fifo.empty() ) {
	.loc 16 225 10
	xor	eax, 1	# retval.42_122,
# GPU.cpp:225:     if ( !bg_fifo.empty() ) {
	.loc 16 225 5
	test	al, al	# retval.42_122
	je	.L173	#,
.LBB64:
# GPU.cpp:226:         uint8_t bg_pixel = mLCDC.bg_window_enable_priority ? bg_fifo.front() : 0;
	.loc 16 226 34
	mov	rax, QWORD PTR [rbp-56]	# tmp192, this
	movzx	eax, BYTE PTR [rax+92257]	# _43, this_98(D)->mLCDC.D.75647
	and	eax, 1	# _44,
# GPU.cpp:226:         uint8_t bg_pixel = mLCDC.bg_window_enable_priority ? bg_fifo.front() : 0;
	.loc 16 226 80
	test	al, al	# _44
	je	.L187	#,
# GPU.cpp:226:         uint8_t bg_pixel = mLCDC.bg_window_enable_priority ? bg_fifo.front() : 0;
	.loc 16 226 75 discriminator 1
	mov	rax, QWORD PTR [rbp-56]	# tmp193, this
	add	rax, 92272	# _45,
	mov	rdi, rax	#, _45
	call	_ZNSt5queueIjSt5dequeIjSaIjEEE5frontEv	#
	mov	eax, DWORD PTR [rax]	# _47, *_46
	jmp	.L188	#
.L187:
# GPU.cpp:226:         uint8_t bg_pixel = mLCDC.bg_window_enable_priority ? bg_fifo.front() : 0;
	.loc 16 226 80 discriminator 2
	mov	eax, 0	# iftmp.43_84,
.L188:
# GPU.cpp:226:         uint8_t bg_pixel = mLCDC.bg_window_enable_priority ? bg_fifo.front() : 0;
	.loc 16 226 80 is_stmt 0 discriminator 4
	mov	BYTE PTR [rbp-33], al	# bg_pixel, iftmp.43_84
# GPU.cpp:227:         uint32_t color_ = bg_pixel;
	.loc 16 227 18 is_stmt 1 discriminator 4
	movzx	eax, BYTE PTR [rbp-33]	# tmp194, bg_pixel
	mov	DWORD PTR [rbp-24], eax	# color_, tmp194
# GPU.cpp:228:         uint32_t *pal = m_BgPaletteColors;
	.loc 16 228 19 discriminator 4
	mov	rax, QWORD PTR [rbp-56]	# tmp198, this
	add	rax, 92208	# tmp197,
	mov	QWORD PTR [rbp-32], rax	# pal, tmp197
.LBB65:
# GPU.cpp:229:         if ( !spr_fifo.empty() ) {
	.loc 16 229 29 discriminator 4
	mov	rax, QWORD PTR [rbp-56]	# tmp199, this
	add	rax, 92352	# _48,
	mov	rdi, rax	#, _48
	call	_ZNKSt5dequeIN2gb8graphics3GPU12Sprite_pixelESaIS3_EE5emptyEv	#
# GPU.cpp:229:         if ( !spr_fifo.empty() ) {
	.loc 16 229 14 discriminator 4
	xor	eax, 1	# retval.44_130,
# GPU.cpp:229:         if ( !spr_fifo.empty() ) {
	.loc 16 229 9 discriminator 4
	test	al, al	# retval.44_130
	je	.L189	#,
.LBB66:
# GPU.cpp:230:             Sprite_pixel spr_pixel = spr_fifo.empty() ? Sprite_pixel{0,0,1} : spr_fifo.front();
	.loc 16 230 52
	mov	rax, QWORD PTR [rbp-56]	# tmp200, this
	add	rax, 92352	# _50,
	mov	rdi, rax	#, _50
	call	_ZNKSt5dequeIN2gb8graphics3GPU12Sprite_pixelESaIS3_EE5emptyEv	#
# GPU.cpp:230:             Sprite_pixel spr_pixel = spr_fifo.empty() ? Sprite_pixel{0,0,1} : spr_fifo.front();
	.loc 16 230 94
	test	al, al	# _51
	je	.L190	#,
# GPU.cpp:230:             Sprite_pixel spr_pixel = spr_fifo.empty() ? Sprite_pixel{0,0,1} : spr_fifo.front();
	.loc 16 230 94 is_stmt 0 discriminator 1
	mov	BYTE PTR [rbp-38], 0	# spr_pixel.color,
	mov	BYTE PTR [rbp-37], 0	# spr_pixel.palette,
	mov	BYTE PTR [rbp-36], 1	# spr_pixel.priority,
	jmp	.L191	#
.L190:
# GPU.cpp:230:             Sprite_pixel spr_pixel = spr_fifo.empty() ? Sprite_pixel{0,0,1} : spr_fifo.front();
	.loc 16 230 93 is_stmt 1 discriminator 2
	mov	rax, QWORD PTR [rbp-56]	# tmp201, this
	add	rax, 92352	# _52,
	mov	rdi, rax	#, _52
	call	_ZNSt5dequeIN2gb8graphics3GPU12Sprite_pixelESaIS3_EE5frontEv	#
# GPU.cpp:230:             Sprite_pixel spr_pixel = spr_fifo.empty() ? Sprite_pixel{0,0,1} : spr_fifo.front();
	.loc 16 230 94 discriminator 2
	movzx	edx, WORD PTR [rax]	# tmp202, MEM[(const struct Sprite_pixel &)_53]
	mov	WORD PTR [rbp-38], dx	# spr_pixel, tmp202
	movzx	eax, BYTE PTR [rax+2]	# tmp203, MEM[(const struct Sprite_pixel &)_53]
	mov	BYTE PTR [rbp-36], al	# spr_pixel, tmp203
.L191:
# GPU.cpp:231:             if ( spr_pixel.color != 0 ) {
	.loc 16 231 28
	movzx	eax, BYTE PTR [rbp-38]	# _54, spr_pixel.color
# GPU.cpp:231:             if ( spr_pixel.color != 0 ) {
	.loc 16 231 13
	test	al, al	# _54
	je	.L192	#,
# GPU.cpp:232:                 if ( !mLCDC.bg_window_enable_priority || !spr_pixel.priority || bg_pixel == 0 ) {
	.loc 16 232 22
	mov	rax, QWORD PTR [rbp-56]	# tmp204, this
	movzx	eax, BYTE PTR [rax+92257]	# _55, this_98(D)->mLCDC.D.75647
	and	eax, 1	# _56,
# GPU.cpp:232:                 if ( !mLCDC.bg_window_enable_priority || !spr_pixel.priority || bg_pixel == 0 ) {
	.loc 16 232 17
	test	al, al	# _56
	je	.L193	#,
# GPU.cpp:232:                 if ( !mLCDC.bg_window_enable_priority || !spr_pixel.priority || bg_pixel == 0 ) {
	.loc 16 232 69 discriminator 1
	movzx	eax, BYTE PTR [rbp-36]	# _57, spr_pixel.priority
# GPU.cpp:232:                 if ( !mLCDC.bg_window_enable_priority || !spr_pixel.priority || bg_pixel == 0 ) {
	.loc 16 232 55 discriminator 1
	test	al, al	# _57
	je	.L193	#,
# GPU.cpp:232:                 if ( !mLCDC.bg_window_enable_priority || !spr_pixel.priority || bg_pixel == 0 ) {
	.loc 16 232 78 discriminator 2
	cmp	BYTE PTR [rbp-33], 0	# bg_pixel,
	jne	.L192	#,
.L193:
# GPU.cpp:233:                     color_ = spr_pixel.color;
	.loc 16 233 40
	movzx	eax, BYTE PTR [rbp-38]	# _58, spr_pixel.color
# GPU.cpp:233:                     color_ = spr_pixel.color;
	.loc 16 233 28
	movzx	eax, al	# tmp205, _58
	mov	DWORD PTR [rbp-24], eax	# color_, tmp205
# GPU.cpp:234:                     pal = spr_pixel.palette ? m_Obj1PaletteColors : m_Obj0PaletteColors;
	.loc 16 234 37
	movzx	eax, BYTE PTR [rbp-37]	# _59, spr_pixel.palette
# GPU.cpp:234:                     pal = spr_pixel.palette ? m_Obj1PaletteColors : m_Obj0PaletteColors;
	.loc 16 234 25
	test	al, al	# _59
	je	.L194	#,
# GPU.cpp:234:                     pal = spr_pixel.palette ? m_Obj1PaletteColors : m_Obj0PaletteColors;
	.loc 16 234 25 is_stmt 0 discriminator 1
	mov	rax, QWORD PTR [rbp-56]	# tmp206, this
	add	rax, 92240	# iftmp.45_85,
	jmp	.L195	#
.L194:
# GPU.cpp:234:                     pal = spr_pixel.palette ? m_Obj1PaletteColors : m_Obj0PaletteColors;
	.loc 16 234 25 discriminator 2
	mov	rax, QWORD PTR [rbp-56]	# tmp207, this
	add	rax, 92224	# iftmp.45_85,
.L195:
# GPU.cpp:234:                     pal = spr_pixel.palette ? m_Obj1PaletteColors : m_Obj0PaletteColors;
	.loc 16 234 25 discriminator 4
	mov	QWORD PTR [rbp-32], rax	# pal, iftmp.45_85
.L192:
# GPU.cpp:237:             spr_fifo.pop_front();
	.loc 16 237 31 is_stmt 1 discriminator 1
	mov	rax, QWORD PTR [rbp-56]	# tmp208, this
	add	rax, 92352	# _60,
	mov	rdi, rax	#, _60
	call	_ZNSt5dequeIN2gb8graphics3GPU12Sprite_pixelESaIS3_EE9pop_frontEv	#
.L189:
.LBE66:
.LBE65:
# GPU.cpp:240:         m_Screen[m_LY * 160 + current_pixel_] = pal[color_];
	.loc 16 240 53
	mov	eax, DWORD PTR [rbp-24]	# _61, color_
# GPU.cpp:240:         m_Screen[m_LY * 160 + current_pixel_] = pal[color_];
	.loc 16 240 59
	lea	rdx, [0+rax*4]	# _62,
	mov	rax, QWORD PTR [rbp-32]	# tmp209, pal
	lea	rcx, [rdx+rax]	# _63,
# GPU.cpp:240:         m_Screen[m_LY * 160 + current_pixel_] = pal[color_];
	.loc 16 240 18
	mov	rax, QWORD PTR [rbp-56]	# tmp210, this
	movzx	eax, BYTE PTR [rax+92261]	# _64, this_98(D)->m_LY
	movzx	edx, al	# _65, _64
# GPU.cpp:240:         m_Screen[m_LY * 160 + current_pixel_] = pal[color_];
	.loc 16 240 23
	mov	eax, edx	# tmp211, _65
	sal	eax, 2	# tmp211,
	add	eax, edx	# tmp211, _65
	sal	eax, 5	# tmp212,
	mov	edx, eax	# _66, tmp211
# GPU.cpp:240:         m_Screen[m_LY * 160 + current_pixel_] = pal[color_];
	.loc 16 240 31
	mov	rax, QWORD PTR [rbp-56]	# tmp213, this
	mov	eax, DWORD PTR [rax+92972]	# _67, this_98(D)->current_pixel_
# GPU.cpp:240:         m_Screen[m_LY * 160 + current_pixel_] = pal[color_];
	.loc 16 240 29
	lea	esi, [rdx+rax]	# _68,
# GPU.cpp:240:         m_Screen[m_LY * 160 + current_pixel_] = pal[color_];
	.loc 16 240 59
	mov	edx, DWORD PTR [rcx]	# _69, *_63
# GPU.cpp:240:         m_Screen[m_LY * 160 + current_pixel_] = pal[color_];
	.loc 16 240 47
	mov	rax, QWORD PTR [rbp-56]	# tmp214, this
	movsx	rcx, esi	# tmp215, _68
	add	rcx, 12	# tmp216,
	mov	DWORD PTR [rax+rcx*4], edx	# this_98(D)->m_Screen[_68], _69
# GPU.cpp:241:         bg_fifo.pop();
	.loc 16 241 20
	mov	rax, QWORD PTR [rbp-56]	# tmp217, this
	add	rax, 92272	# _70,
	mov	rdi, rax	#, _70
	call	_ZNSt5queueIjSt5dequeIjSaIjEEE3popEv	#
# GPU.cpp:242:         current_pixel_++;
	.loc 16 242 9
	mov	rax, QWORD PTR [rbp-56]	# tmp218, this
	mov	eax, DWORD PTR [rax+92972]	# _71, this_98(D)->current_pixel_
# GPU.cpp:242:         current_pixel_++;
	.loc 16 242 23
	lea	edx, [rax+1]	# _72,
	mov	rax, QWORD PTR [rbp-56]	# tmp219, this
	mov	DWORD PTR [rax+92972], edx	# this_98(D)->current_pixel_, _72
# GPU.cpp:243:         if (current_pixel_ == 160) {
	.loc 16 243 13
	mov	rax, QWORD PTR [rbp-56]	# tmp220, this
	mov	eax, DWORD PTR [rax+92972]	# _73, this_98(D)->current_pixel_
# GPU.cpp:243:         if (current_pixel_ == 160) {
	.loc 16 243 9
	cmp	eax, 160	# _73,
	jne	.L173	#,
# GPU.cpp:244:             current_pixel_ = 0;
	.loc 16 244 28
	mov	rax, QWORD PTR [rbp-56]	# tmp221, this
	mov	DWORD PTR [rax+92972], 0	# this_98(D)->current_pixel_,
# GPU.cpp:245:             if (rendering_window)
	.loc 16 245 17
	mov	rax, QWORD PTR [rbp-56]	# tmp222, this
	movzx	eax, BYTE PTR [rax+92270]	# _74, this_98(D)->rendering_window
# GPU.cpp:245:             if (rendering_window)
	.loc 16 245 13
	test	al, al	# _74
	je	.L196	#,
# GPU.cpp:246:                 internal_window_counter++;
	.loc 16 246 17
	mov	rax, QWORD PTR [rbp-56]	# tmp223, this
	movzx	eax, BYTE PTR [rax+92271]	# _75, this_98(D)->internal_window_counter
# GPU.cpp:246:                 internal_window_counter++;
	.loc 16 246 40
	lea	edx, [rax+1]	# _77,
	mov	rax, QWORD PTR [rbp-56]	# tmp224, this
	mov	BYTE PTR [rax+92271], dl	# this_98(D)->internal_window_counter, _77
.L196:
# GPU.cpp:247:             update_state(Ppu_state::hblank);
	.loc 16 247 25
	mov	rax, QWORD PTR [rbp-56]	# tmp225, this
	mov	esi, 0	#,
	mov	rdi, rax	#, tmp225
	call	_ZN2gb8graphics3GPU12update_stateENS1_9Ppu_stateE	#
	jmp	.L173	#
.L197:
.LBE64:
.LBE63:
# GPU.cpp:201:         return;
	.loc 16 201 9
	nop	
	jmp	.L173	#
.L199:
.LBB67:
.LBB62:
# GPU.cpp:221:                 return;
	.loc 16 221 17
	nop	
.L173:
.LBE62:
.LBE67:
# GPU.cpp:250: }
	.loc 16 250 1
	add	rsp, 48	#,
	pop	rbx	#
	pop	r12	#
	pop	rbp	#
	.cfi_def_cfa 7, 8
	ret	
	.cfi_endproc
.LFE6138:
	.size	_ZN2gb8graphics3GPU12render_pixelEv, .-_ZN2gb8graphics3GPU12render_pixelEv
	.align 2
	.type	_ZZN2gb8graphics3GPU4stepEiENKUl6spriteS2_E_clES2_S2_, @function
_ZZN2gb8graphics3GPU4stepEiENKUl6spriteS2_E_clES2_S2_:
.LFB6140:
	.loc 16 317 63
	.cfi_startproc
	push	rbp	#
	.cfi_def_cfa_offset 16
	.cfi_offset 6, -16
	mov	rbp, rsp	#,
	.cfi_def_cfa_register 6
	mov	QWORD PTR [rbp-8], rdi	# __closure, __closure
	mov	QWORD PTR [rbp-16], rsi	# a,
	mov	QWORD PTR [rbp-24], rdx	# b,
# GPU.cpp:318:                         return a.x <= b.x && a.oam_offset < b.oam_offset;
	.loc 16 318 34
	movzx	edx, BYTE PTR [rbp-14]	# _1, a.x
# GPU.cpp:318:                         return a.x <= b.x && a.oam_offset < b.oam_offset;
	.loc 16 318 41
	movzx	eax, BYTE PTR [rbp-22]	# _2, b.x
# GPU.cpp:318:                         return a.x <= b.x && a.oam_offset < b.oam_offset;
	.loc 16 318 43
	cmp	dl, al	# _1, _2
	ja	.L201	#,
# GPU.cpp:318:                         return a.x <= b.x && a.oam_offset < b.oam_offset;
	.loc 16 318 48 discriminator 1
	movzx	edx, BYTE PTR [rbp-16]	# _3, a.oam_offset
# GPU.cpp:318:                         return a.x <= b.x && a.oam_offset < b.oam_offset;
	.loc 16 318 63 discriminator 1
	movzx	eax, BYTE PTR [rbp-24]	# _4, b.oam_offset
# GPU.cpp:318:                         return a.x <= b.x && a.oam_offset < b.oam_offset;
	.loc 16 318 43 discriminator 1
	cmp	dl, al	# _3, _4
	jnb	.L201	#,
# GPU.cpp:318:                         return a.x <= b.x && a.oam_offset < b.oam_offset;
	.loc 16 318 43 is_stmt 0 discriminator 3
	mov	eax, 1	# iftmp.163_5,
	jmp	.L202	#
.L201:
# GPU.cpp:318:                         return a.x <= b.x && a.oam_offset < b.oam_offset;
	.loc 16 318 43 discriminator 4
	mov	eax, 0	# iftmp.163_5,
.L202:
# GPU.cpp:319:                     });
	.loc 16 319 21 is_stmt 1 discriminator 6
	pop	rbp	#
	.cfi_def_cfa 7, 8
	ret	
	.cfi_endproc
.LFE6140:
	.size	_ZZN2gb8graphics3GPU4stepEiENKUl6spriteS2_E_clES2_S2_, .-_ZZN2gb8graphics3GPU4stepEiENKUl6spriteS2_E_clES2_S2_
	.align 2
	.globl	_ZN2gb8graphics3GPU4stepEi
	.type	_ZN2gb8graphics3GPU4stepEi, @function
_ZN2gb8graphics3GPU4stepEi:
.LFB6139:
	.loc 16 252 42
	.cfi_startproc
	push	rbp	#
	.cfi_def_cfa_offset 16
	.cfi_offset 6, -16
	mov	rbp, rsp	#,
	.cfi_def_cfa_register 6
	push	rbx	#
	sub	rsp, 40	#,
	.cfi_offset 3, -24
	mov	QWORD PTR [rbp-40], rdi	# this, this
	mov	DWORD PTR [rbp-44], esi	# cycles, cycles
# GPU.cpp:253:     if ( !mLCDC.lcd_enable ) {
	.loc 16 253 10
	mov	rax, QWORD PTR [rbp-40]	# tmp199, this
	movzx	eax, BYTE PTR [rax+92257]	# _1, this_126(D)->mLCDC.D.75647
	and	eax, -128	# _2,
# GPU.cpp:253:     if ( !mLCDC.lcd_enable ) {
	.loc 16 253 5
	test	al, al	# _2
	jne	.L207	#,
# GPU.cpp:254:         mScanlineCounter = 0;
	.loc 16 254 26
	mov	rax, QWORD PTR [rbp-40]	# tmp200, this
	mov	DWORD PTR [rax+92488], 0	# this_126(D)->mScanlineCounter,
# GPU.cpp:255:         m_LY = 0;
	.loc 16 255 14
	mov	rax, QWORD PTR [rbp-40]	# tmp201, this
	mov	BYTE PTR [rax+92261], 0	# this_126(D)->m_LY,
# GPU.cpp:256:         mLCDStat &= 0xFC;
	.loc 16 256 18
	mov	rax, QWORD PTR [rbp-40]	# tmp202, this
	movzx	eax, BYTE PTR [rax+92258]	# _3, this_126(D)->mLCDStat
	and	eax, -4	# _3,
	mov	edx, eax	# _4, _3
	mov	rax, QWORD PTR [rbp-40]	# tmp203, this
	mov	BYTE PTR [rax+92258], dl	# this_126(D)->mLCDStat, _4
# GPU.cpp:257:         state_ = Ppu_state::vblank;
	.loc 16 257 16
	mov	rax, QWORD PTR [rbp-40]	# tmp204, this
	mov	BYTE PTR [rax+92256], 1	# this_126(D)->state_,
# GPU.cpp:258:         return;
	.loc 16 258 9
	jmp	.L204	#
.L233:
.LBB68:
.LBB69:
# GPU.cpp:262:         switch (state_) {
	.loc 16 262 17
	mov	rax, QWORD PTR [rbp-40]	# tmp205, this
	movzx	eax, BYTE PTR [rax+92256]	# _5, this_126(D)->state_
# GPU.cpp:262:         switch (state_) {
	.loc 16 262 9
	cmp	al, 3	# _5,
	je	.L208	#,
	cmp	al, 3	# _5,
	ja	.L207	#,
	cmp	al, 2	# _5,
	je	.L209	#,
	cmp	al, 2	# _5,
	ja	.L207	#,
	test	al, al	# _5
	je	.L210	#,
	cmp	al, 1	# _5,
	je	.L211	#,
	jmp	.L207	#
.L210:
.LBB70:
# GPU.cpp:264:                 if ( ++mScanlineCounter == 456 ) {
	.loc 16 264 24
	mov	rax, QWORD PTR [rbp-40]	# tmp206, this
	mov	eax, DWORD PTR [rax+92488]	# _6, this_126(D)->mScanlineCounter
# GPU.cpp:264:                 if ( ++mScanlineCounter == 456 ) {
	.loc 16 264 22
	lea	edx, [rax+1]	# _7,
# GPU.cpp:264:                 if ( ++mScanlineCounter == 456 ) {
	.loc 16 264 41
	mov	rax, QWORD PTR [rbp-40]	# tmp207, this
	mov	DWORD PTR [rax+92488], edx	# this_126(D)->mScanlineCounter, _7
# GPU.cpp:264:                 if ( ++mScanlineCounter == 456 ) {
	.loc 16 264 24
	mov	rax, QWORD PTR [rbp-40]	# tmp208, this
	mov	eax, DWORD PTR [rax+92488]	# _8, this_126(D)->mScanlineCounter
# GPU.cpp:264:                 if ( ++mScanlineCounter == 456 ) {
	.loc 16 264 41
	cmp	eax, 456	# _8,
	sete	al	#, retval.47_185
# GPU.cpp:264:                 if ( ++mScanlineCounter == 456 ) {
	.loc 16 264 17
	test	al, al	# retval.47_185
	je	.L207	#,
# GPU.cpp:265:                     mScanlineCounter = 0;
	.loc 16 265 38
	mov	rax, QWORD PTR [rbp-40]	# tmp209, this
	mov	DWORD PTR [rax+92488], 0	# this_126(D)->mScanlineCounter,
# GPU.cpp:266:                     ++m_LY;
	.loc 16 266 23
	mov	rax, QWORD PTR [rbp-40]	# tmp210, this
	movzx	eax, BYTE PTR [rax+92261]	# _9, this_126(D)->m_LY
# GPU.cpp:266:                     ++m_LY;
	.loc 16 266 21
	lea	edx, [rax+1]	# _10,
	mov	rax, QWORD PTR [rbp-40]	# tmp211, this
	mov	BYTE PTR [rax+92261], dl	# this_126(D)->m_LY, _10
# GPU.cpp:267:                     if ( m_LY == mLYC ) {
	.loc 16 267 26
	mov	rax, QWORD PTR [rbp-40]	# tmp212, this
	movzx	edx, BYTE PTR [rax+92261]	# _11, this_126(D)->m_LY
# GPU.cpp:267:                     if ( m_LY == mLYC ) {
	.loc 16 267 34
	mov	rax, QWORD PTR [rbp-40]	# tmp213, this
	movzx	eax, BYTE PTR [rax+92262]	# _12, this_126(D)->mLYC
# GPU.cpp:267:                     if ( m_LY == mLYC ) {
	.loc 16 267 21
	cmp	dl, al	# _11, _12
	jne	.L213	#,
# GPU.cpp:268:                         mLCDStat |= (1 << COINCIDENCE_FLAG);
	.loc 16 268 34
	mov	rax, QWORD PTR [rbp-40]	# tmp214, this
	movzx	eax, BYTE PTR [rax+92258]	# _13, this_126(D)->mLCDStat
	or	eax, 4	# _13,
	mov	edx, eax	# _14, _13
	mov	rax, QWORD PTR [rbp-40]	# tmp215, this
	mov	BYTE PTR [rax+92258], dl	# this_126(D)->mLCDStat, _14
# GPU.cpp:269:                         interrupts_->request(cpu::Interrupts::lcd);
	.loc 16 269 25
	mov	rax, QWORD PTR [rbp-40]	# tmp216, this
	add	rax, 8	# _15,
# GPU.cpp:269:                         interrupts_->request(cpu::Interrupts::lcd);
	.loc 16 269 45
	mov	rdi, rax	#, _15
	call	_ZNKSt19__shared_ptr_accessIN2gb3cpu10InterruptsELN9__gnu_cxx12_Lock_policyE2ELb0ELb0EEptEv	#
	mov	esi, 1	#,
	mov	rdi, rax	#, _16
	call	_ZN2gb3cpu10Interrupts7requestEi	#
	jmp	.L214	#
.L213:
# GPU.cpp:270:                     } else if ( m_LY != mLYC ) {
	.loc 16 270 33
	mov	rax, QWORD PTR [rbp-40]	# tmp217, this
	movzx	edx, BYTE PTR [rax+92261]	# _17, this_126(D)->m_LY
# GPU.cpp:270:                     } else if ( m_LY != mLYC ) {
	.loc 16 270 41
	mov	rax, QWORD PTR [rbp-40]	# tmp218, this
	movzx	eax, BYTE PTR [rax+92262]	# _18, this_126(D)->mLYC
# GPU.cpp:270:                     } else if ( m_LY != mLYC ) {
	.loc 16 270 28
	cmp	dl, al	# _17, _18
	je	.L214	#,
# GPU.cpp:271:                         if ( mLCDStat & (1 << COINCIDENCE_FLAG) ) {
	.loc 16 271 30
	mov	rax, QWORD PTR [rbp-40]	# tmp219, this
	movzx	eax, BYTE PTR [rax+92258]	# _19, this_126(D)->mLCDStat
	movzx	eax, al	# _20, _19
# GPU.cpp:271:                         if ( mLCDStat & (1 << COINCIDENCE_FLAG) ) {
	.loc 16 271 39
	and	eax, 4	# _21,
# GPU.cpp:271:                         if ( mLCDStat & (1 << COINCIDENCE_FLAG) ) {
	.loc 16 271 25
	test	eax, eax	# _21
	je	.L214	#,
# GPU.cpp:272:                             mLCDStat &= ~(1 << COINCIDENCE_FLAG);
	.loc 16 272 38
	mov	rax, QWORD PTR [rbp-40]	# tmp220, this
	movzx	eax, BYTE PTR [rax+92258]	# _22, this_126(D)->mLCDStat
	and	eax, -5	# _22,
	mov	edx, eax	# _23, _22
	mov	rax, QWORD PTR [rbp-40]	# tmp221, this
	mov	BYTE PTR [rax+92258], dl	# this_126(D)->mLCDStat, _23
.L214:
# GPU.cpp:275:                     if ( m_LY == 144 ) {
	.loc 16 275 26
	mov	rax, QWORD PTR [rbp-40]	# tmp222, this
	movzx	eax, BYTE PTR [rax+92261]	# _24, this_126(D)->m_LY
# GPU.cpp:275:                     if ( m_LY == 144 ) {
	.loc 16 275 21
	cmp	al, -112	# _24,
	jne	.L215	#,
# GPU.cpp:276:                         update_state(Ppu_state::vblank);
	.loc 16 276 37
	mov	rax, QWORD PTR [rbp-40]	# tmp223, this
	mov	esi, 1	#,
	mov	rdi, rax	#, tmp223
	call	_ZN2gb8graphics3GPU12update_stateENS1_9Ppu_stateE	#
# GPU.cpp:277:                         interrupts_->request(cpu::Interrupts::v_blank);
	.loc 16 277 25
	mov	rax, QWORD PTR [rbp-40]	# tmp224, this
	add	rax, 8	# _25,
# GPU.cpp:277:                         interrupts_->request(cpu::Interrupts::v_blank);
	.loc 16 277 45
	mov	rdi, rax	#, _25
	call	_ZNKSt19__shared_ptr_accessIN2gb3cpu10InterruptsELN9__gnu_cxx12_Lock_policyE2ELb0ELb0EEptEv	#
	mov	esi, 0	#,
	mov	rdi, rax	#, _26
	call	_ZN2gb3cpu10Interrupts7requestEi	#
	jmp	.L207	#
.L215:
# GPU.cpp:279:                         update_state(Ppu_state::oam_search);
	.loc 16 279 37
	mov	rax, QWORD PTR [rbp-40]	# tmp225, this
	mov	esi, 2	#,
	mov	rdi, rax	#, tmp225
	call	_ZN2gb8graphics3GPU12update_stateENS1_9Ppu_stateE	#
# GPU.cpp:282:                 break;
	.loc 16 282 17
	jmp	.L207	#
.L211:
# GPU.cpp:284:                 if ( ++mScanlineCounter == 456 ) {
	.loc 16 284 24
	mov	rax, QWORD PTR [rbp-40]	# tmp226, this
	mov	eax, DWORD PTR [rax+92488]	# _27, this_126(D)->mScanlineCounter
# GPU.cpp:284:                 if ( ++mScanlineCounter == 456 ) {
	.loc 16 284 22
	lea	edx, [rax+1]	# _28,
# GPU.cpp:284:                 if ( ++mScanlineCounter == 456 ) {
	.loc 16 284 41
	mov	rax, QWORD PTR [rbp-40]	# tmp227, this
	mov	DWORD PTR [rax+92488], edx	# this_126(D)->mScanlineCounter, _28
# GPU.cpp:284:                 if ( ++mScanlineCounter == 456 ) {
	.loc 16 284 24
	mov	rax, QWORD PTR [rbp-40]	# tmp228, this
	mov	eax, DWORD PTR [rax+92488]	# _29, this_126(D)->mScanlineCounter
# GPU.cpp:284:                 if ( ++mScanlineCounter == 456 ) {
	.loc 16 284 41
	cmp	eax, 456	# _29,
	sete	al	#, retval.48_174
# GPU.cpp:284:                 if ( ++mScanlineCounter == 456 ) {
	.loc 16 284 17
	test	al, al	# retval.48_174
	je	.L216	#,
# GPU.cpp:285:                     mScanlineCounter = 0;
	.loc 16 285 38
	mov	rax, QWORD PTR [rbp-40]	# tmp229, this
	mov	DWORD PTR [rax+92488], 0	# this_126(D)->mScanlineCounter,
# GPU.cpp:286:                     m_LY++;
	.loc 16 286 21
	mov	rax, QWORD PTR [rbp-40]	# tmp230, this
	movzx	eax, BYTE PTR [rax+92261]	# _30, this_126(D)->m_LY
# GPU.cpp:286:                     m_LY++;
	.loc 16 286 25
	lea	edx, [rax+1]	# _32,
	mov	rax, QWORD PTR [rbp-40]	# tmp231, this
	mov	BYTE PTR [rax+92261], dl	# this_126(D)->m_LY, _32
# GPU.cpp:287:                     if ( m_LY == mLYC ) {
	.loc 16 287 26
	mov	rax, QWORD PTR [rbp-40]	# tmp232, this
	movzx	edx, BYTE PTR [rax+92261]	# _33, this_126(D)->m_LY
# GPU.cpp:287:                     if ( m_LY == mLYC ) {
	.loc 16 287 34
	mov	rax, QWORD PTR [rbp-40]	# tmp233, this
	movzx	eax, BYTE PTR [rax+92262]	# _34, this_126(D)->mLYC
# GPU.cpp:287:                     if ( m_LY == mLYC ) {
	.loc 16 287 21
	cmp	dl, al	# _33, _34
	jne	.L217	#,
# GPU.cpp:288:                         mLCDStat |= (1 << COINCIDENCE_FLAG);
	.loc 16 288 34
	mov	rax, QWORD PTR [rbp-40]	# tmp234, this
	movzx	eax, BYTE PTR [rax+92258]	# _35, this_126(D)->mLCDStat
	or	eax, 4	# _35,
	mov	edx, eax	# _36, _35
	mov	rax, QWORD PTR [rbp-40]	# tmp235, this
	mov	BYTE PTR [rax+92258], dl	# this_126(D)->mLCDStat, _36
# GPU.cpp:289:                         interrupts_->request(cpu::Interrupts::lcd);
	.loc 16 289 25
	mov	rax, QWORD PTR [rbp-40]	# tmp236, this
	add	rax, 8	# _37,
# GPU.cpp:289:                         interrupts_->request(cpu::Interrupts::lcd);
	.loc 16 289 45
	mov	rdi, rax	#, _37
	call	_ZNKSt19__shared_ptr_accessIN2gb3cpu10InterruptsELN9__gnu_cxx12_Lock_policyE2ELb0ELb0EEptEv	#
	mov	esi, 1	#,
	mov	rdi, rax	#, _38
	call	_ZN2gb3cpu10Interrupts7requestEi	#
	jmp	.L216	#
.L217:
# GPU.cpp:290:                     } else if ( m_LY != mLYC ) {
	.loc 16 290 33
	mov	rax, QWORD PTR [rbp-40]	# tmp237, this
	movzx	edx, BYTE PTR [rax+92261]	# _39, this_126(D)->m_LY
# GPU.cpp:290:                     } else if ( m_LY != mLYC ) {
	.loc 16 290 41
	mov	rax, QWORD PTR [rbp-40]	# tmp238, this
	movzx	eax, BYTE PTR [rax+92262]	# _40, this_126(D)->mLYC
# GPU.cpp:290:                     } else if ( m_LY != mLYC ) {
	.loc 16 290 28
	cmp	dl, al	# _39, _40
	je	.L216	#,
# GPU.cpp:291:                         if ( mLCDStat & (1 << COINCIDENCE_FLAG) ) {
	.loc 16 291 30
	mov	rax, QWORD PTR [rbp-40]	# tmp239, this
	movzx	eax, BYTE PTR [rax+92258]	# _41, this_126(D)->mLCDStat
	movzx	eax, al	# _42, _41
# GPU.cpp:291:                         if ( mLCDStat & (1 << COINCIDENCE_FLAG) ) {
	.loc 16 291 39
	and	eax, 4	# _43,
# GPU.cpp:291:                         if ( mLCDStat & (1 << COINCIDENCE_FLAG) ) {
	.loc 16 291 25
	test	eax, eax	# _43
	je	.L216	#,
# GPU.cpp:292:                             mLCDStat &= ~(1 << COINCIDENCE_FLAG);
	.loc 16 292 38
	mov	rax, QWORD PTR [rbp-40]	# tmp240, this
	movzx	eax, BYTE PTR [rax+92258]	# _44, this_126(D)->mLCDStat
	and	eax, -5	# _44,
	mov	edx, eax	# _45, _44
	mov	rax, QWORD PTR [rbp-40]	# tmp241, this
	mov	BYTE PTR [rax+92258], dl	# this_126(D)->mLCDStat, _45
.L216:
# GPU.cpp:296:                 if ( m_LY == 154 ) {
	.loc 16 296 22
	mov	rax, QWORD PTR [rbp-40]	# tmp242, this
	movzx	eax, BYTE PTR [rax+92261]	# _46, this_126(D)->m_LY
# GPU.cpp:296:                 if ( m_LY == 154 ) {
	.loc 16 296 17
	cmp	al, -102	# _46,
	jne	.L207	#,
# GPU.cpp:297:                     m_LY = 0;
	.loc 16 297 26
	mov	rax, QWORD PTR [rbp-40]	# tmp243, this
	mov	BYTE PTR [rax+92261], 0	# this_126(D)->m_LY,
# GPU.cpp:298:                     internal_window_counter = 0;
	.loc 16 298 45
	mov	rax, QWORD PTR [rbp-40]	# tmp244, this
	mov	BYTE PTR [rax+92271], 0	# this_126(D)->internal_window_counter,
# GPU.cpp:299:                     update_state(Ppu_state::oam_search);
	.loc 16 299 33
	mov	rax, QWORD PTR [rbp-40]	# tmp245, this
	mov	esi, 2	#,
	mov	rdi, rax	#, tmp245
	call	_ZN2gb8graphics3GPU12update_stateENS1_9Ppu_stateE	#
# GPU.cpp:301:                 break;
	.loc 16 301 17
	jmp	.L207	#
.L208:
# GPU.cpp:303:                 render_pixel();
	.loc 16 303 29
	mov	rax, QWORD PTR [rbp-40]	# tmp246, this
	mov	rdi, rax	#, tmp246
	call	_ZN2gb8graphics3GPU12render_pixelEv	#
# GPU.cpp:304:                 pxl_fetcher.step();
	.loc 16 304 33
	mov	rax, QWORD PTR [rbp-40]	# tmp247, this
	add	rax, 92432	# _47,
	mov	rdi, rax	#, _47
	call	_ZN2gb8graphics3GPU13Pixel_fetcher4stepEv	#
# GPU.cpp:305:                 mScanlineCounter++;
	.loc 16 305 17
	mov	rax, QWORD PTR [rbp-40]	# tmp248, this
	mov	eax, DWORD PTR [rax+92488]	# _48, this_126(D)->mScanlineCounter
# GPU.cpp:305:                 mScanlineCounter++;
	.loc 16 305 33
	lea	edx, [rax+1]	# _49,
	mov	rax, QWORD PTR [rbp-40]	# tmp249, this
	mov	DWORD PTR [rax+92488], edx	# this_126(D)->mScanlineCounter, _49
# GPU.cpp:306:                 break;
	.loc 16 306 17
	jmp	.L207	#
.L209:
.LBB71:
# GPU.cpp:308:                 if ( ++mScanlineCounter == 80 ) {
	.loc 16 308 24
	mov	rax, QWORD PTR [rbp-40]	# tmp250, this
	mov	eax, DWORD PTR [rax+92488]	# _50, this_126(D)->mScanlineCounter
# GPU.cpp:308:                 if ( ++mScanlineCounter == 80 ) {
	.loc 16 308 22
	lea	edx, [rax+1]	# _51,
# GPU.cpp:308:                 if ( ++mScanlineCounter == 80 ) {
	.loc 16 308 41
	mov	rax, QWORD PTR [rbp-40]	# tmp251, this
	mov	DWORD PTR [rax+92488], edx	# this_126(D)->mScanlineCounter, _51
# GPU.cpp:308:                 if ( ++mScanlineCounter == 80 ) {
	.loc 16 308 24
	mov	rax, QWORD PTR [rbp-40]	# tmp252, this
	mov	eax, DWORD PTR [rax+92488]	# _52, this_126(D)->mScanlineCounter
# GPU.cpp:308:                 if ( ++mScanlineCounter == 80 ) {
	.loc 16 308 41
	cmp	eax, 80	# _52,
	sete	al	#, retval.49_134
# GPU.cpp:308:                 if ( ++mScanlineCounter == 80 ) {
	.loc 16 308 17
	test	al, al	# retval.49_134
	je	.L234	#,
.LBB72:
# GPU.cpp:309:                     while ( !sprites.empty() )
	.loc 16 309 21
	jmp	.L220	#
.L221:
# GPU.cpp:310:                         sprites.pop_back();
	.loc 16 310 41
	mov	rax, QWORD PTR [rbp-40]	# tmp253, this
	add	rax, 24	# _53,
	mov	rdi, rax	#, _53
	call	_ZNSt6vectorI6spriteSaIS0_EE8pop_backEv	#
.L220:
# GPU.cpp:309:                     while ( !sprites.empty() )
	.loc 16 309 43
	mov	rax, QWORD PTR [rbp-40]	# tmp254, this
	add	rax, 24	# _54,
	mov	rdi, rax	#, _54
	call	_ZNKSt6vectorI6spriteSaIS0_EE5emptyEv	#
# GPU.cpp:309:                     while ( !sprites.empty() )
	.loc 16 309 29
	xor	eax, 1	# retval.50_136,
	test	al, al	# retval.50_136
	jne	.L221	#,
.LBB73:
# GPU.cpp:311:                     for ( int i = 0; i < oam_size && sprites.size() < 10; i += 4 ) {
	.loc 16 311 31
	mov	DWORD PTR [rbp-20], 0	# i,
# GPU.cpp:311:                     for ( int i = 0; i < oam_size && sprites.size() < 10; i += 4 ) {
	.loc 16 311 21
	jmp	.L222	#
.L228:
.LBB74:
# GPU.cpp:312:                         sprite x{static_cast<uint8_t>(i >> 2), mOAM[i], mOAM[i+1], mOAM[i+2], mOAM[i+3], false};
	.loc 16 312 32
	mov	DWORD PTR [rbp-28], 0	# x,
	mov	WORD PTR [rbp-24], 0	# x,
# GPU.cpp:312:                         sprite x{static_cast<uint8_t>(i >> 2), mOAM[i], mOAM[i+1], mOAM[i+2], mOAM[i+3], false};
	.loc 16 312 57
	mov	eax, DWORD PTR [rbp-20]	# tmp255, i
	sar	eax, 2	# _56,
# GPU.cpp:312:                         sprite x{static_cast<uint8_t>(i >> 2), mOAM[i], mOAM[i+1], mOAM[i+2], mOAM[i+3], false};
	.loc 16 312 111
	mov	BYTE PTR [rbp-28], al	# x.oam_offset, _57
# GPU.cpp:312:                         sprite x{static_cast<uint8_t>(i >> 2), mOAM[i], mOAM[i+1], mOAM[i+2], mOAM[i+3], false};
	.loc 16 312 70
	mov	rax, QWORD PTR [rbp-40]	# tmp256, this
	lea	rdx, [rax+92888]	# _58,
	mov	eax, DWORD PTR [rbp-20]	# i.51_59, i
	mov	esi, eax	#, i.51_59
	mov	rdi, rdx	#, _58
	call	_ZN2gb6memory13Address_spaceixEj	#
# GPU.cpp:312:                         sprite x{static_cast<uint8_t>(i >> 2), mOAM[i], mOAM[i+1], mOAM[i+2], mOAM[i+3], false};
	.loc 16 312 111
	movzx	eax, BYTE PTR [rax]	# _61, *_60
	mov	BYTE PTR [rbp-27], al	# x.y, _61
# GPU.cpp:312:                         sprite x{static_cast<uint8_t>(i >> 2), mOAM[i], mOAM[i+1], mOAM[i+2], mOAM[i+3], false};
	.loc 16 312 81
	mov	rax, QWORD PTR [rbp-40]	# tmp257, this
	add	rax, 92888	# _62,
# GPU.cpp:312:                         sprite x{static_cast<uint8_t>(i >> 2), mOAM[i], mOAM[i+1], mOAM[i+2], mOAM[i+3], false};
	.loc 16 312 79
	mov	edx, DWORD PTR [rbp-20]	# tmp258, i
	add	edx, 1	# _63,
# GPU.cpp:312:                         sprite x{static_cast<uint8_t>(i >> 2), mOAM[i], mOAM[i+1], mOAM[i+2], mOAM[i+3], false};
	.loc 16 312 81
	mov	esi, edx	#, _64
	mov	rdi, rax	#, _62
	call	_ZN2gb6memory13Address_spaceixEj	#
# GPU.cpp:312:                         sprite x{static_cast<uint8_t>(i >> 2), mOAM[i], mOAM[i+1], mOAM[i+2], mOAM[i+3], false};
	.loc 16 312 111
	movzx	eax, BYTE PTR [rax]	# _66, *_65
	mov	BYTE PTR [rbp-26], al	# x.x, _66
# GPU.cpp:312:                         sprite x{static_cast<uint8_t>(i >> 2), mOAM[i], mOAM[i+1], mOAM[i+2], mOAM[i+3], false};
	.loc 16 312 92
	mov	rax, QWORD PTR [rbp-40]	# tmp259, this
	add	rax, 92888	# _67,
# GPU.cpp:312:                         sprite x{static_cast<uint8_t>(i >> 2), mOAM[i], mOAM[i+1], mOAM[i+2], mOAM[i+3], false};
	.loc 16 312 90
	mov	edx, DWORD PTR [rbp-20]	# tmp260, i
	add	edx, 2	# _68,
# GPU.cpp:312:                         sprite x{static_cast<uint8_t>(i >> 2), mOAM[i], mOAM[i+1], mOAM[i+2], mOAM[i+3], false};
	.loc 16 312 92
	mov	esi, edx	#, _69
	mov	rdi, rax	#, _67
	call	_ZN2gb6memory13Address_spaceixEj	#
# GPU.cpp:312:                         sprite x{static_cast<uint8_t>(i >> 2), mOAM[i], mOAM[i+1], mOAM[i+2], mOAM[i+3], false};
	.loc 16 312 111
	movzx	eax, BYTE PTR [rax]	# _71, *_70
	mov	BYTE PTR [rbp-25], al	# x.tile_location, _71
# GPU.cpp:312:                         sprite x{static_cast<uint8_t>(i >> 2), mOAM[i], mOAM[i+1], mOAM[i+2], mOAM[i+3], false};
	.loc 16 312 103
	mov	rax, QWORD PTR [rbp-40]	# tmp261, this
	add	rax, 92888	# _72,
# GPU.cpp:312:                         sprite x{static_cast<uint8_t>(i >> 2), mOAM[i], mOAM[i+1], mOAM[i+2], mOAM[i+3], false};
	.loc 16 312 101
	mov	edx, DWORD PTR [rbp-20]	# tmp262, i
	add	edx, 3	# _73,
# GPU.cpp:312:                         sprite x{static_cast<uint8_t>(i >> 2), mOAM[i], mOAM[i+1], mOAM[i+2], mOAM[i+3], false};
	.loc 16 312 103
	mov	esi, edx	#, _74
	mov	rdi, rax	#, _72
	call	_ZN2gb6memory13Address_spaceixEj	#
# GPU.cpp:312:                         sprite x{static_cast<uint8_t>(i >> 2), mOAM[i], mOAM[i+1], mOAM[i+2], mOAM[i+3], false};
	.loc 16 312 111
	movzx	eax, BYTE PTR [rax]	# _76, *_75
	mov	BYTE PTR [rbp-24], al	# x.attributes, _76
# GPU.cpp:313:                         if ( x.x >= 0 && (m_LY + 16 >= x.y) && (m_LY + 16 < (x.y + (mLCDC.obj_size ? 16 : 8))) ) {
	.loc 16 313 43
	mov	rax, QWORD PTR [rbp-40]	# tmp263, this
	movzx	eax, BYTE PTR [rax+92261]	# _77, this_126(D)->m_LY
	movzx	eax, al	# _78, _77
# GPU.cpp:313:                         if ( x.x >= 0 && (m_LY + 16 >= x.y) && (m_LY + 16 < (x.y + (mLCDC.obj_size ? 16 : 8))) ) {
	.loc 16 313 48
	lea	edx, [rax+16]	# _79,
# GPU.cpp:313:                         if ( x.x >= 0 && (m_LY + 16 >= x.y) && (m_LY + 16 < (x.y + (mLCDC.obj_size ? 16 : 8))) ) {
	.loc 16 313 58
	movzx	eax, BYTE PTR [rbp-27]	# _80, x.y
	movzx	eax, al	# _81, _80
# GPU.cpp:313:                         if ( x.x >= 0 && (m_LY + 16 >= x.y) && (m_LY + 16 < (x.y + (mLCDC.obj_size ? 16 : 8))) ) {
	.loc 16 313 25
	cmp	edx, eax	# _79, _81
	jl	.L223	#,
# GPU.cpp:313:                         if ( x.x >= 0 && (m_LY + 16 >= x.y) && (m_LY + 16 < (x.y + (mLCDC.obj_size ? 16 : 8))) ) {
	.loc 16 313 65 discriminator 1
	mov	rax, QWORD PTR [rbp-40]	# tmp264, this
	movzx	eax, BYTE PTR [rax+92261]	# _82, this_126(D)->m_LY
	movzx	eax, al	# _83, _82
# GPU.cpp:313:                         if ( x.x >= 0 && (m_LY + 16 >= x.y) && (m_LY + 16 < (x.y + (mLCDC.obj_size ? 16 : 8))) ) {
	.loc 16 313 70 discriminator 1
	lea	edx, [rax+16]	# _84,
# GPU.cpp:313:                         if ( x.x >= 0 && (m_LY + 16 >= x.y) && (m_LY + 16 < (x.y + (mLCDC.obj_size ? 16 : 8))) ) {
	.loc 16 313 80 discriminator 1
	movzx	eax, BYTE PTR [rbp-27]	# _85, x.y
	movzx	ecx, al	# _86, _85
# GPU.cpp:313:                         if ( x.x >= 0 && (m_LY + 16 >= x.y) && (m_LY + 16 < (x.y + (mLCDC.obj_size ? 16 : 8))) ) {
	.loc 16 313 91 discriminator 1
	mov	rax, QWORD PTR [rbp-40]	# tmp265, this
	movzx	eax, BYTE PTR [rax+92257]	# _87, this_126(D)->mLCDC.D.75647
	and	eax, 4	# _88,
# GPU.cpp:313:                         if ( x.x >= 0 && (m_LY + 16 >= x.y) && (m_LY + 16 < (x.y + (mLCDC.obj_size ? 16 : 8))) ) {
	.loc 16 313 100 discriminator 1
	test	al, al	# _88
	je	.L224	#,
# GPU.cpp:313:                         if ( x.x >= 0 && (m_LY + 16 >= x.y) && (m_LY + 16 < (x.y + (mLCDC.obj_size ? 16 : 8))) ) {
	.loc 16 313 100 is_stmt 0 discriminator 2
	mov	eax, 16	# iftmp.52_109,
	jmp	.L225	#
.L224:
# GPU.cpp:313:                         if ( x.x >= 0 && (m_LY + 16 >= x.y) && (m_LY + 16 < (x.y + (mLCDC.obj_size ? 16 : 8))) ) {
	.loc 16 313 100 discriminator 3
	mov	eax, 8	# iftmp.52_109,
.L225:
# GPU.cpp:313:                         if ( x.x >= 0 && (m_LY + 16 >= x.y) && (m_LY + 16 < (x.y + (mLCDC.obj_size ? 16 : 8))) ) {
	.loc 16 313 82 is_stmt 1 discriminator 5
	add	eax, ecx	# _89, _86
# GPU.cpp:313:                         if ( x.x >= 0 && (m_LY + 16 >= x.y) && (m_LY + 16 < (x.y + (mLCDC.obj_size ? 16 : 8))) ) {
	.loc 16 313 61 discriminator 5
	cmp	edx, eax	# _84, _89
	jge	.L223	#,
# GPU.cpp:314:                             sprites.push_back(x);
	.loc 16 314 46
	mov	rax, QWORD PTR [rbp-40]	# tmp266, this
	lea	rdx, [rax+24]	# _90,
	lea	rax, [rbp-28]	# tmp267,
	mov	rsi, rax	#, tmp267
	mov	rdi, rdx	#, _90
	call	_ZNSt6vectorI6spriteSaIS0_EE9push_backERKS0_	#
.L223:
.LBE74:
# GPU.cpp:311:                     for ( int i = 0; i < oam_size && sprites.size() < 10; i += 4 ) {
	.loc 16 311 77 discriminator 2
	add	DWORD PTR [rbp-20], 4	# i,
.L222:
# GPU.cpp:311:                     for ( int i = 0; i < oam_size && sprites.size() < 10; i += 4 ) {
	.loc 16 311 51 discriminator 1
	cmp	DWORD PTR [rbp-20], 159	# i,
	jg	.L226	#,
# GPU.cpp:311:                     for ( int i = 0; i < oam_size && sprites.size() < 10; i += 4 ) {
	.loc 16 311 66 discriminator 3
	mov	rax, QWORD PTR [rbp-40]	# tmp268, this
	add	rax, 24	# _91,
	mov	rdi, rax	#, _91
	call	_ZNKSt6vectorI6spriteSaIS0_EE4sizeEv	#
# GPU.cpp:311:                     for ( int i = 0; i < oam_size && sprites.size() < 10; i += 4 ) {
	.loc 16 311 51 discriminator 3
	cmp	rax, 9	# _92,
	ja	.L226	#,
# GPU.cpp:311:                     for ( int i = 0; i < oam_size && sprites.size() < 10; i += 4 ) {
	.loc 16 311 51 is_stmt 0 discriminator 5
	mov	eax, 1	# iftmp.54_110,
	jmp	.L227	#
.L226:
# GPU.cpp:311:                     for ( int i = 0; i < oam_size && sprites.size() < 10; i += 4 ) {
	.loc 16 311 51 discriminator 6
	mov	eax, 0	# iftmp.54_110,
.L227:
# GPU.cpp:311:                     for ( int i = 0; i < oam_size && sprites.size() < 10; i += 4 ) {
	.loc 16 311 51 discriminator 8
	test	al, al	# iftmp.54_110
	jne	.L228	#,
.LBE73:
# GPU.cpp:317:                     std::sort(sprites.begin(), sprites.end(), [](sprite a, sprite b) {
	.loc 16 317 30 is_stmt 1
	mov	rax, QWORD PTR [rbp-40]	# tmp269, this
	add	rax, 24	# _93,
	mov	rdi, rax	#, _93
	call	_ZNSt6vectorI6spriteSaIS0_EE3endEv	#
	mov	rbx, rax	# D.182640,
	mov	rax, QWORD PTR [rbp-40]	# tmp270, this
	add	rax, 24	# _94,
	mov	rdi, rax	#, _94
	call	_ZNSt6vectorI6spriteSaIS0_EE5beginEv	#
	mov	rsi, rbx	#, D.182640
	mov	rdi, rax	#, D.182641
	call	_ZSt4sortIN9__gnu_cxx17__normal_iteratorIP6spriteSt6vectorIS2_SaIS2_EEEEZN2gb8graphics3GPU4stepEiEUlS2_S2_E_EvT_SC_T0_	#
# GPU.cpp:321:                     x_ = mScrollX;
	.loc 16 321 24
	mov	rax, QWORD PTR [rbp-40]	# tmp271, this
	movzx	eax, BYTE PTR [rax+92259]	# tmp272, this_126(D)->mScrollX
	mov	BYTE PTR [rbp-21], al	# x_, tmp272
# GPU.cpp:322:                     y_ = m_LY + mScrollY;
	.loc 16 322 26
	mov	rax, QWORD PTR [rbp-40]	# tmp273, this
	movzx	edx, BYTE PTR [rax+92261]	# _95, this_126(D)->m_LY
# GPU.cpp:322:                     y_ = m_LY + mScrollY;
	.loc 16 322 33
	mov	rax, QWORD PTR [rbp-40]	# tmp274, this
	movzx	eax, BYTE PTR [rax+92260]	# _96, this_126(D)->mScrollY
# GPU.cpp:322:                     y_ = m_LY + mScrollY;
	.loc 16 322 24
	add	eax, edx	# tmp275, _95
	mov	BYTE PTR [rbp-22], al	# y_, tmp275
# GPU.cpp:323:                     rendering_window = false;
	.loc 16 323 38
	mov	rax, QWORD PTR [rbp-40]	# tmp276, this
	mov	BYTE PTR [rax+92270], 0	# this_126(D)->rendering_window,
# GPU.cpp:324:                     pxl_fetcher.reset(x_, y_, false);
	.loc 16 324 38
	mov	rax, QWORD PTR [rbp-40]	# tmp277, this
	lea	rdi, [rax+92432]	# _97,
	movzx	edx, BYTE PTR [rbp-22]	# _98, y_
	movzx	eax, BYTE PTR [rbp-21]	# _99, x_
	mov	ecx, 0	#,
	mov	esi, eax	#, _99
	call	_ZN2gb8graphics3GPU13Pixel_fetcher5resetEhhb	#
# GPU.cpp:325:                     while ( !bg_fifo.empty() ) bg_fifo.pop();
	.loc 16 325 21
	jmp	.L229	#
.L230:
# GPU.cpp:325:                     while ( !bg_fifo.empty() ) bg_fifo.pop();
	.loc 16 325 59 discriminator 2
	mov	rax, QWORD PTR [rbp-40]	# tmp278, this
	add	rax, 92272	# _100,
	mov	rdi, rax	#, _100
	call	_ZNSt5queueIjSt5dequeIjSaIjEEE3popEv	#
.L229:
# GPU.cpp:325:                     while ( !bg_fifo.empty() ) bg_fifo.pop();
	.loc 16 325 43 discriminator 1
	mov	rax, QWORD PTR [rbp-40]	# tmp279, this
	add	rax, 92272	# _101,
	mov	rdi, rax	#, _101
	call	_ZNKSt5queueIjSt5dequeIjSaIjEEE5emptyEv	#
# GPU.cpp:325:                     while ( !bg_fifo.empty() ) bg_fifo.pop();
	.loc 16 325 29 discriminator 1
	xor	eax, 1	# retval.55_150,
	test	al, al	# retval.55_150
	jne	.L230	#,
# GPU.cpp:326:                     while ( !spr_fifo.empty() ) spr_fifo.pop_front();
	.loc 16 326 21
	jmp	.L231	#
.L232:
# GPU.cpp:326:                     while ( !spr_fifo.empty() ) spr_fifo.pop_front();
	.loc 16 326 67 discriminator 2
	mov	rax, QWORD PTR [rbp-40]	# tmp280, this
	add	rax, 92352	# _103,
	mov	rdi, rax	#, _103
	call	_ZNSt5dequeIN2gb8graphics3GPU12Sprite_pixelESaIS3_EE9pop_frontEv	#
.L231:
# GPU.cpp:326:                     while ( !spr_fifo.empty() ) spr_fifo.pop_front();
	.loc 16 326 44 discriminator 1
	mov	rax, QWORD PTR [rbp-40]	# tmp281, this
	add	rax, 92352	# _104,
	mov	rdi, rax	#, _104
	call	_ZNKSt5dequeIN2gb8graphics3GPU12Sprite_pixelESaIS3_EE5emptyEv	#
# GPU.cpp:326:                     while ( !spr_fifo.empty() ) spr_fifo.pop_front();
	.loc 16 326 29 discriminator 1
	xor	eax, 1	# retval.56_152,
	test	al, al	# retval.56_152
	jne	.L232	#,
# GPU.cpp:327:                     update_state(Ppu_state::pixel_transfer);
	.loc 16 327 33
	mov	rax, QWORD PTR [rbp-40]	# tmp282, this
	mov	esi, 3	#,
	mov	rdi, rax	#, tmp282
	call	_ZN2gb8graphics3GPU12update_stateENS1_9Ppu_stateE	#
.L234:
.LBE72:
.LBE71:
# GPU.cpp:329:                 break;
	.loc 16 329 17
	nop	
.L207:
.LBE70:
.LBE69:
.LBE68:
# GPU.cpp:261:     while ( cycles-- > 0 ) {
	.loc 16 261 19
	mov	eax, DWORD PTR [rbp-44]	# cycles.58_106, cycles
	lea	edx, [rax-1]	# tmp283,
	mov	DWORD PTR [rbp-44], edx	# cycles, tmp283
# GPU.cpp:261:     while ( cycles-- > 0 ) {
	.loc 16 261 22
	test	eax, eax	# cycles.58_106
	setg	al	#, retval.57_129
	test	al, al	# retval.57_129
	jne	.L233	#,
.L204:
# GPU.cpp:332: }
	.loc 16 332 1
	mov	rbx, QWORD PTR [rbp-8]	#,
	leave	
	.cfi_def_cfa 7, 8
	ret	
	.cfi_endproc
.LFE6139:
	.size	_ZN2gb8graphics3GPU4stepEi, .-_ZN2gb8graphics3GPU4stepEi
	.align 2
	.globl	_ZN2gb8graphics3GPU9read_vramEti
	.type	_ZN2gb8graphics3GPU9read_vramEti, @function
_ZN2gb8graphics3GPU9read_vramEti:
.LFB6143:
	.loc 16 334 68
	.cfi_startproc
	push	rbp	#
	.cfi_def_cfa_offset 16
	.cfi_offset 6, -16
	mov	rbp, rsp	#,
	.cfi_def_cfa_register 6
	sub	rsp, 32	#,
	mov	QWORD PTR [rbp-24], rdi	# this, this
	mov	eax, esi	# tmp90, addr
	mov	DWORD PTR [rbp-32], edx	# vram_bank, vram_bank
	mov	WORD PTR [rbp-28], ax	# addr, tmp91
# GPU.cpp:335:     uint16_t a = 0x2000 * (vram_bank & 1) + addr;
	.loc 16 335 43
	mov	eax, DWORD PTR [rbp-32]	# tmp92, vram_bank
	and	eax, 1	# _2,
	sal	eax, 13	# _2,
	mov	edx, eax	# _3, _2
# GPU.cpp:335:     uint16_t a = 0x2000 * (vram_bank & 1) + addr;
	.loc 16 335 14
	movzx	eax, WORD PTR [rbp-28]	# tmp96, addr
	add	eax, edx	# tmp95, _3
	mov	WORD PTR [rbp-2], ax	# a, tmp95
# GPU.cpp:336:     if ( a >= 0x4000 ) {
	.loc 16 336 5
	cmp	WORD PTR [rbp-2], 16383	# a,
	jbe	.L236	#,
# GPU.cpp:337:         return 0xFF;
	.loc 16 337 16
	mov	eax, -1	# _7,
	jmp	.L237	#
.L236:
# GPU.cpp:339:     return mVRAM[a];
	.loc 16 339 19
	mov	rax, QWORD PTR [rbp-24]	# tmp97, this
	lea	rdx, [rax+92928]	# _4,
	movzx	eax, WORD PTR [rbp-2]	# _5, a
	mov	esi, eax	#, _5
	mov	rdi, rdx	#, _4
	call	_ZN2gb6memory13Address_spaceixEj	#
	movzx	eax, BYTE PTR [rax]	# _7, *_6
.L237:
# GPU.cpp:340: }
	.loc 16 340 1
	leave	
	.cfi_def_cfa 7, 8
	ret	
	.cfi_endproc
.LFE6143:
	.size	_ZN2gb8graphics3GPU9read_vramEti, .-_ZN2gb8graphics3GPU9read_vramEti
	.align 2
	.globl	_ZN2gb8graphics3GPU10write_vramEthi
	.type	_ZN2gb8graphics3GPU10write_vramEthi, @function
_ZN2gb8graphics3GPU10write_vramEthi:
.LFB6144:
	.loc 16 342 79
	.cfi_startproc
	push	rbp	#
	.cfi_def_cfa_offset 16
	.cfi_offset 6, -16
	mov	rbp, rsp	#,
	.cfi_def_cfa_register 6
	push	rbx	#
	sub	rsp, 56	#,
	.cfi_offset 3, -24
	mov	QWORD PTR [rbp-40], rdi	# this, this
	mov	eax, esi	# tmp96, addr
	mov	DWORD PTR [rbp-52], ecx	# vram_bank, vram_bank
	mov	WORD PTR [rbp-44], ax	# addr, tmp97
	mov	eax, edx	# tmp99, tmp98
	mov	BYTE PTR [rbp-48], al	# val, tmp99
# GPU.cpp:343:     if ( state_ == Ppu_state::pixel_transfer )
	.loc 16 343 10
	mov	rax, QWORD PTR [rbp-40]	# tmp100, this
	movzx	eax, BYTE PTR [rax+92256]	# _1, this_17(D)->state_
# GPU.cpp:343:     if ( state_ == Ppu_state::pixel_transfer )
	.loc 16 343 5
	cmp	al, 3	# _1,
	je	.L242	#,
# GPU.cpp:345:     uint16_t a = 0x2000 * (vram_bank & 1) + addr;
	.loc 16 345 43
	mov	eax, DWORD PTR [rbp-52]	# tmp101, vram_bank
	and	eax, 1	# _3,
	sal	eax, 13	# _3,
	mov	edx, eax	# _4, _3
# GPU.cpp:345:     uint16_t a = 0x2000 * (vram_bank & 1) + addr;
	.loc 16 345 14
	movzx	eax, WORD PTR [rbp-44]	# tmp105, addr
	add	eax, edx	# tmp104, _4
	mov	WORD PTR [rbp-18], ax	# a, tmp104
# GPU.cpp:346:     if ( a >= 0x4000 ) {
	.loc 16 346 5
	cmp	WORD PTR [rbp-18], 16383	# a,
	ja	.L243	#,
# GPU.cpp:349:     mVRAM[a] = val;
	.loc 16 349 14
	movzx	ebx, BYTE PTR [rbp-48]	# val.68_5, val
# GPU.cpp:349:     mVRAM[a] = val;
	.loc 16 349 12
	mov	rax, QWORD PTR [rbp-40]	# tmp106, this
	lea	rdx, [rax+92928]	# _6,
	movzx	eax, WORD PTR [rbp-18]	# _7, a
	mov	esi, eax	#, _7
	mov	rdi, rdx	#, _6
	call	_ZN2gb6memory13Address_spaceixEj	#
# GPU.cpp:349:     mVRAM[a] = val;
	.loc 16 349 14
	mov	BYTE PTR [rax], bl	# *_8, val.68_5
# GPU.cpp:351:     if ( addr <= 0x17FF )
	.loc 16 351 5
	cmp	WORD PTR [rbp-44], 6143	# addr,
	ja	.L238	#,
# GPU.cpp:352:         tileset[addr >> 4].update_byte(addr & 0xF, val);
	.loc 16 352 22
	movzx	eax, WORD PTR [rbp-44]	# tmp107, addr
	shr	ax, 4	# _9,
# GPU.cpp:352:         tileset[addr >> 4].update_byte(addr & 0xF, val);
	.loc 16 352 26
	movzx	eax, ax	# _10, _9
	mov	rsi, rax	#, _10
	mov	edi, OFFSET FLAT:_ZN12_GLOBAL__N_17tilesetE	#,
	call	_ZNSt6vectorI4TileSaIS0_EEixEm	#
	mov	rdi, rax	# _11,
# GPU.cpp:352:         tileset[addr >> 4].update_byte(addr & 0xF, val);
	.loc 16 352 39
	movzx	eax, BYTE PTR [rbp-48]	# _12, val
# GPU.cpp:352:         tileset[addr >> 4].update_byte(addr & 0xF, val);
	.loc 16 352 45
	movzx	edx, WORD PTR [rbp-44]	# _13, addr
# GPU.cpp:352:         tileset[addr >> 4].update_byte(addr & 0xF, val);
	.loc 16 352 39
	mov	ecx, edx	# _13, _13
	and	ecx, 15	# _13,
	mov	edx, eax	#, _12
	mov	esi, ecx	#, _14
	call	_ZN4Tile11update_byteEih	#
	jmp	.L238	#
.L242:
# GPU.cpp:344:         return;
	.loc 16 344 9
	nop	
	jmp	.L238	#
.L243:
# GPU.cpp:347:         return;
	.loc 16 347 9
	nop	
.L238:
# GPU.cpp:353: }
	.loc 16 353 1
	mov	rbx, QWORD PTR [rbp-8]	#,
	leave	
	.cfi_def_cfa 7, 8
	ret	
	.cfi_endproc
.LFE6144:
	.size	_ZN2gb8graphics3GPU10write_vramEthi, .-_ZN2gb8graphics3GPU10write_vramEthi
	.align 2
	.globl	_ZN2gb8graphics3GPU17update_bg_paletteEv
	.type	_ZN2gb8graphics3GPU17update_bg_paletteEv, @function
_ZN2gb8graphics3GPU17update_bg_paletteEv:
.LFB6145:
	.loc 16 355 45
	.cfi_startproc
	push	rbp	#
	.cfi_def_cfa_offset 16
	.cfi_offset 6, -16
	mov	rbp, rsp	#,
	.cfi_def_cfa_register 6
	mov	QWORD PTR [rbp-24], rdi	# this, this
.LBB75:
# GPU.cpp:356:     for (int i = 0; i < 4; i++)
	.loc 16 356 14
	mov	DWORD PTR [rbp-4], 0	# i,
# GPU.cpp:356:     for (int i = 0; i < 4; i++)
	.loc 16 356 5
	jmp	.L245	#
.L246:
# GPU.cpp:357:         m_BgPaletteColors[i] = monoPalette[(mBGPalette >> (i * 2)) & 0x3];
	.loc 16 357 45 discriminator 3
	mov	rax, QWORD PTR [rbp-24]	# tmp88, this
	movzx	eax, BYTE PTR [rax+92265]	# _1, this_11(D)->mBGPalette
	movzx	edx, al	# _2, _1
# GPU.cpp:357:         m_BgPaletteColors[i] = monoPalette[(mBGPalette >> (i * 2)) & 0x3];
	.loc 16 357 62 discriminator 3
	mov	eax, DWORD PTR [rbp-4]	# tmp89, i
	add	eax, eax	# _3
# GPU.cpp:357:         m_BgPaletteColors[i] = monoPalette[(mBGPalette >> (i * 2)) & 0x3];
	.loc 16 357 56 discriminator 3
	mov	ecx, eax	# tmp97, _3
	sar	edx, cl	# _2, tmp97
	mov	eax, edx	# _4, _2
# GPU.cpp:357:         m_BgPaletteColors[i] = monoPalette[(mBGPalette >> (i * 2)) & 0x3];
	.loc 16 357 68 discriminator 3
	and	eax, 3	# _5,
# GPU.cpp:357:         m_BgPaletteColors[i] = monoPalette[(mBGPalette >> (i * 2)) & 0x3];
	.loc 16 357 73 discriminator 3
	cdqe
	mov	edx, DWORD PTR _ZN12_GLOBAL__N_1L11monoPaletteE[0+rax*4]	# _6, monoPalette[_5]
# GPU.cpp:357:         m_BgPaletteColors[i] = monoPalette[(mBGPalette >> (i * 2)) & 0x3];
	.loc 16 357 30 discriminator 3
	mov	rax, QWORD PTR [rbp-24]	# tmp91, this
	mov	ecx, DWORD PTR [rbp-4]	# tmp93, i
	movsx	rcx, ecx	# tmp92, tmp93
	add	rcx, 23052	# tmp94,
	mov	DWORD PTR [rax+rcx*4], edx	# this_11(D)->m_BgPaletteColors[i_7], _6
# GPU.cpp:356:     for (int i = 0; i < 4; i++)
	.loc 16 356 5 discriminator 3
	add	DWORD PTR [rbp-4], 1	# i,
.L245:
# GPU.cpp:356:     for (int i = 0; i < 4; i++)
	.loc 16 356 23 discriminator 1
	cmp	DWORD PTR [rbp-4], 3	# i,
	jle	.L246	#,
.LBE75:
# GPU.cpp:358: }
	.loc 16 358 1
	nop	
	nop	
	pop	rbp	#
	.cfi_def_cfa 7, 8
	ret	
	.cfi_endproc
.LFE6145:
	.size	_ZN2gb8graphics3GPU17update_bg_paletteEv, .-_ZN2gb8graphics3GPU17update_bg_paletteEv
	.align 2
	.globl	_ZN2gb8graphics3GPU19update_obj0_paletteEv
	.type	_ZN2gb8graphics3GPU19update_obj0_paletteEv, @function
_ZN2gb8graphics3GPU19update_obj0_paletteEv:
.LFB6146:
	.loc 16 360 47
	.cfi_startproc
	push	rbp	#
	.cfi_def_cfa_offset 16
	.cfi_offset 6, -16
	mov	rbp, rsp	#,
	.cfi_def_cfa_register 6
	mov	QWORD PTR [rbp-24], rdi	# this, this
.LBB76:
# GPU.cpp:361:     for (int i = 0; i < 4; i++)
	.loc 16 361 14
	mov	DWORD PTR [rbp-4], 0	# i,
# GPU.cpp:361:     for (int i = 0; i < 4; i++)
	.loc 16 361 5
	jmp	.L248	#
.L249:
# GPU.cpp:362:         m_Obj0PaletteColors[i] = monoPalette[(mObjPal0 >> (i * 2)) & 0x3];
	.loc 16 362 47 discriminator 3
	mov	rax, QWORD PTR [rbp-24]	# tmp88, this
	movzx	eax, BYTE PTR [rax+92266]	# _1, this_11(D)->mObjPal0
	movzx	edx, al	# _2, _1
# GPU.cpp:362:         m_Obj0PaletteColors[i] = monoPalette[(mObjPal0 >> (i * 2)) & 0x3];
	.loc 16 362 62 discriminator 3
	mov	eax, DWORD PTR [rbp-4]	# tmp89, i
	add	eax, eax	# _3
# GPU.cpp:362:         m_Obj0PaletteColors[i] = monoPalette[(mObjPal0 >> (i * 2)) & 0x3];
	.loc 16 362 56 discriminator 3
	mov	ecx, eax	# tmp97, _3
	sar	edx, cl	# _2, tmp97
	mov	eax, edx	# _4, _2
# GPU.cpp:362:         m_Obj0PaletteColors[i] = monoPalette[(mObjPal0 >> (i * 2)) & 0x3];
	.loc 16 362 68 discriminator 3
	and	eax, 3	# _5,
# GPU.cpp:362:         m_Obj0PaletteColors[i] = monoPalette[(mObjPal0 >> (i * 2)) & 0x3];
	.loc 16 362 73 discriminator 3
	cdqe
	mov	edx, DWORD PTR _ZN12_GLOBAL__N_1L11monoPaletteE[0+rax*4]	# _6, monoPalette[_5]
# GPU.cpp:362:         m_Obj0PaletteColors[i] = monoPalette[(mObjPal0 >> (i * 2)) & 0x3];
	.loc 16 362 32 discriminator 3
	mov	rax, QWORD PTR [rbp-24]	# tmp91, this
	mov	ecx, DWORD PTR [rbp-4]	# tmp93, i
	movsx	rcx, ecx	# tmp92, tmp93
	add	rcx, 23056	# tmp94,
	mov	DWORD PTR [rax+rcx*4], edx	# this_11(D)->m_Obj0PaletteColors[i_7], _6
# GPU.cpp:361:     for (int i = 0; i < 4; i++)
	.loc 16 361 5 discriminator 3
	add	DWORD PTR [rbp-4], 1	# i,
.L248:
# GPU.cpp:361:     for (int i = 0; i < 4; i++)
	.loc 16 361 23 discriminator 1
	cmp	DWORD PTR [rbp-4], 3	# i,
	jle	.L249	#,
.LBE76:
# GPU.cpp:363: }
	.loc 16 363 1
	nop	
	nop	
	pop	rbp	#
	.cfi_def_cfa 7, 8
	ret	
	.cfi_endproc
.LFE6146:
	.size	_ZN2gb8graphics3GPU19update_obj0_paletteEv, .-_ZN2gb8graphics3GPU19update_obj0_paletteEv
	.align 2
	.globl	_ZN2gb8graphics3GPU19update_obj1_paletteEv
	.type	_ZN2gb8graphics3GPU19update_obj1_paletteEv, @function
_ZN2gb8graphics3GPU19update_obj1_paletteEv:
.LFB6147:
	.loc 16 365 47
	.cfi_startproc
	push	rbp	#
	.cfi_def_cfa_offset 16
	.cfi_offset 6, -16
	mov	rbp, rsp	#,
	.cfi_def_cfa_register 6
	mov	QWORD PTR [rbp-24], rdi	# this, this
.LBB77:
# GPU.cpp:366:     for (int i = 0; i < 4; i++)
	.loc 16 366 14
	mov	DWORD PTR [rbp-4], 0	# i,
# GPU.cpp:366:     for (int i = 0; i < 4; i++)
	.loc 16 366 5
	jmp	.L251	#
.L252:
# GPU.cpp:367:         m_Obj1PaletteColors[i] = monoPalette[(mObjPal1 >> (i * 2)) & 0x3];
	.loc 16 367 47 discriminator 3
	mov	rax, QWORD PTR [rbp-24]	# tmp88, this
	movzx	eax, BYTE PTR [rax+92267]	# _1, this_11(D)->mObjPal1
	movzx	edx, al	# _2, _1
# GPU.cpp:367:         m_Obj1PaletteColors[i] = monoPalette[(mObjPal1 >> (i * 2)) & 0x3];
	.loc 16 367 62 discriminator 3
	mov	eax, DWORD PTR [rbp-4]	# tmp89, i
	add	eax, eax	# _3
# GPU.cpp:367:         m_Obj1PaletteColors[i] = monoPalette[(mObjPal1 >> (i * 2)) & 0x3];
	.loc 16 367 56 discriminator 3
	mov	ecx, eax	# tmp97, _3
	sar	edx, cl	# _2, tmp97
	mov	eax, edx	# _4, _2
# GPU.cpp:367:         m_Obj1PaletteColors[i] = monoPalette[(mObjPal1 >> (i * 2)) & 0x3];
	.loc 16 367 68 discriminator 3
	and	eax, 3	# _5,
# GPU.cpp:367:         m_Obj1PaletteColors[i] = monoPalette[(mObjPal1 >> (i * 2)) & 0x3];
	.loc 16 367 73 discriminator 3
	cdqe
	mov	edx, DWORD PTR _ZN12_GLOBAL__N_1L11monoPaletteE[0+rax*4]	# _6, monoPalette[_5]
# GPU.cpp:367:         m_Obj1PaletteColors[i] = monoPalette[(mObjPal1 >> (i * 2)) & 0x3];
	.loc 16 367 32 discriminator 3
	mov	rax, QWORD PTR [rbp-24]	# tmp91, this
	mov	ecx, DWORD PTR [rbp-4]	# tmp93, i
	movsx	rcx, ecx	# tmp92, tmp93
	add	rcx, 23060	# tmp94,
	mov	DWORD PTR [rax+rcx*4], edx	# this_11(D)->m_Obj1PaletteColors[i_7], _6
# GPU.cpp:366:     for (int i = 0; i < 4; i++)
	.loc 16 366 5 discriminator 3
	add	DWORD PTR [rbp-4], 1	# i,
.L251:
# GPU.cpp:366:     for (int i = 0; i < 4; i++)
	.loc 16 366 23 discriminator 1
	cmp	DWORD PTR [rbp-4], 3	# i,
	jle	.L252	#,
.LBE77:
# GPU.cpp:368: }
	.loc 16 368 1
	nop	
	nop	
	pop	rbp	#
	.cfi_def_cfa 7, 8
	ret	
	.cfi_endproc
.LFE6147:
	.size	_ZN2gb8graphics3GPU19update_obj1_paletteEv, .-_ZN2gb8graphics3GPU19update_obj1_paletteEv
	.align 2
	.globl	_ZN2gb8graphics3GPU14launch_gp_hdmaEv
	.type	_ZN2gb8graphics3GPU14launch_gp_hdmaEv, @function
_ZN2gb8graphics3GPU14launch_gp_hdmaEv:
.LFB6148:
	.loc 16 370 42
	.cfi_startproc
	push	rbp	#
	.cfi_def_cfa_offset 16
	.cfi_offset 6, -16
	mov	rbp, rsp	#,
	.cfi_def_cfa_register 6
	push	rbx	#
	sub	rsp, 40	#,
	.cfi_offset 3, -24
	mov	QWORD PTR [rbp-40], rdi	# this, this
# GPU.cpp:371:     uint16_t src = (mHDMASourceHi << 8) | mHDMASourceLo;
	.loc 16 371 21
	mov	rax, QWORD PTR [rbp-40]	# tmp114, this
	movzx	eax, BYTE PTR [rax+92493]	# _1, this_36(D)->mHDMASourceHi
	movzx	eax, al	# _2, _1
# GPU.cpp:371:     uint16_t src = (mHDMASourceHi << 8) | mHDMASourceLo;
	.loc 16 371 35
	sal	eax, 8	# _3,
# GPU.cpp:371:     uint16_t src = (mHDMASourceHi << 8) | mHDMASourceLo;
	.loc 16 371 41
	mov	edx, eax	# _4, _3
# GPU.cpp:371:     uint16_t src = (mHDMASourceHi << 8) | mHDMASourceLo;
	.loc 16 371 43
	mov	rax, QWORD PTR [rbp-40]	# tmp115, this
	movzx	eax, BYTE PTR [rax+92492]	# _5, this_36(D)->mHDMASourceLo
	movzx	eax, al	# _6, _5
# GPU.cpp:371:     uint16_t src = (mHDMASourceHi << 8) | mHDMASourceLo;
	.loc 16 371 41
	or	eax, edx	# _7, _4
# GPU.cpp:371:     uint16_t src = (mHDMASourceHi << 8) | mHDMASourceLo;
	.loc 16 371 14
	mov	WORD PTR [rbp-22], ax	# src, _7
# GPU.cpp:372:     uint16_t dst = (mHDMADestHi << 8) | mHDMADestLo;
	.loc 16 372 21
	mov	rax, QWORD PTR [rbp-40]	# tmp116, this
	movzx	eax, BYTE PTR [rax+92495]	# _8, this_36(D)->mHDMADestHi
	movzx	eax, al	# _9, _8
# GPU.cpp:372:     uint16_t dst = (mHDMADestHi << 8) | mHDMADestLo;
	.loc 16 372 33
	sal	eax, 8	# _10,
# GPU.cpp:372:     uint16_t dst = (mHDMADestHi << 8) | mHDMADestLo;
	.loc 16 372 39
	mov	edx, eax	# _11, _10
# GPU.cpp:372:     uint16_t dst = (mHDMADestHi << 8) | mHDMADestLo;
	.loc 16 372 41
	mov	rax, QWORD PTR [rbp-40]	# tmp117, this
	movzx	eax, BYTE PTR [rax+92494]	# _12, this_36(D)->mHDMADestLo
	movzx	eax, al	# _13, _12
# GPU.cpp:372:     uint16_t dst = (mHDMADestHi << 8) | mHDMADestLo;
	.loc 16 372 39
	or	eax, edx	# _14, _11
# GPU.cpp:372:     uint16_t dst = (mHDMADestHi << 8) | mHDMADestLo;
	.loc 16 372 14
	mov	WORD PTR [rbp-24], ax	# dst, _14
# GPU.cpp:373:     unsigned int len = (mHDMALenMode.len + 1) << 4;
	.loc 16 373 38
	mov	rax, QWORD PTR [rbp-40]	# tmp118, this
	movzx	eax, BYTE PTR [rax+92496]	# tmp120, *this_36(D)
	and	eax, 127	# _15,
	movzx	eax, al	# _16, _15
# GPU.cpp:373:     unsigned int len = (mHDMALenMode.len + 1) << 4;
	.loc 16 373 42
	add	eax, 1	# _17,
# GPU.cpp:373:     unsigned int len = (mHDMALenMode.len + 1) << 4;
	.loc 16 373 47
	sal	eax, 4	# _18,
# GPU.cpp:373:     unsigned int len = (mHDMALenMode.len + 1) << 4;
	.loc 16 373 18
	mov	DWORD PTR [rbp-28], eax	# len, _18
.LBB78:
# GPU.cpp:374:     for ( unsigned int i = 0; i < len; i++ )
	.loc 16 374 24
	mov	DWORD PTR [rbp-20], 0	# i,
# GPU.cpp:374:     for ( unsigned int i = 0; i < len; i++ )
	.loc 16 374 5
	jmp	.L254	#
.L255:
# GPU.cpp:375:         m_GB.mmu_->write(dst + i, m_GB.mmu_->read(src + i));
	.loc 16 375 9 discriminator 3
	mov	rax, QWORD PTR [rbp-40]	# tmp121, this
	mov	rax, QWORD PTR [rax]	# _19, this_36(D)->m_GB
# GPU.cpp:375:         m_GB.mmu_->write(dst + i, m_GB.mmu_->read(src + i));
	.loc 16 375 25 discriminator 3
	add	rax, 16	# _20,
	mov	rdi, rax	#, _20
	call	_ZNKSt10unique_ptrIN2gb6memory6MemoryESt14default_deleteIS2_EEptEv	#
	mov	rbx, rax	# _21,
# GPU.cpp:375:         m_GB.mmu_->write(dst + i, m_GB.mmu_->read(src + i));
	.loc 16 375 35 discriminator 3
	mov	rax, QWORD PTR [rbp-40]	# tmp122, this
	mov	rax, QWORD PTR [rax]	# _22, this_36(D)->m_GB
# GPU.cpp:375:         m_GB.mmu_->write(dst + i, m_GB.mmu_->read(src + i));
	.loc 16 375 50 discriminator 3
	add	rax, 16	# _23,
	mov	rdi, rax	#, _23
	call	_ZNKSt10unique_ptrIN2gb6memory6MemoryESt14default_deleteIS2_EEptEv	#
	mov	rdx, rax	# _24,
# GPU.cpp:375:         m_GB.mmu_->write(dst + i, m_GB.mmu_->read(src + i));
	.loc 16 375 55 discriminator 3
	mov	eax, DWORD PTR [rbp-20]	# tmp123, i
	mov	ecx, eax	# _25, tmp123
	movzx	eax, WORD PTR [rbp-22]	# tmp124, src
	add	eax, ecx	# _26, _25
# GPU.cpp:375:         m_GB.mmu_->write(dst + i, m_GB.mmu_->read(src + i));
	.loc 16 375 50 discriminator 3
	movzx	eax, ax	# _27, _26
	mov	esi, eax	#, _27
	mov	rdi, rdx	#, _24
	call	_ZN2gb6memory6Memory4readEt	#
# GPU.cpp:375:         m_GB.mmu_->write(dst + i, m_GB.mmu_->read(src + i));
	.loc 16 375 25 discriminator 3
	movzx	edx, al	# _29, _28
# GPU.cpp:375:         m_GB.mmu_->write(dst + i, m_GB.mmu_->read(src + i));
	.loc 16 375 30 discriminator 3
	mov	eax, DWORD PTR [rbp-20]	# tmp125, i
	mov	ecx, eax	# _30, tmp125
	movzx	eax, WORD PTR [rbp-24]	# tmp126, dst
	add	eax, ecx	# _31, _30
# GPU.cpp:375:         m_GB.mmu_->write(dst + i, m_GB.mmu_->read(src + i));
	.loc 16 375 25 discriminator 3
	movzx	eax, ax	# _32, _31
	mov	esi, eax	#, _32
	mov	rdi, rbx	#, _21
	call	_ZN2gb6memory6Memory5writeEth	#
# GPU.cpp:374:     for ( unsigned int i = 0; i < len; i++ )
	.loc 16 374 5 discriminator 3
	add	DWORD PTR [rbp-20], 1	# i,
.L254:
# GPU.cpp:374:     for ( unsigned int i = 0; i < len; i++ )
	.loc 16 374 33 discriminator 1
	mov	eax, DWORD PTR [rbp-20]	# tmp127, i
	cmp	eax, DWORD PTR [rbp-28]	# tmp127, len
	jb	.L255	#,
.LBE78:
# GPU.cpp:376:     mHDMALenMode.val = 0xFF;
	.loc 16 376 22
	mov	rax, QWORD PTR [rbp-40]	# tmp128, this
	mov	BYTE PTR [rax+92496], -1	# this_36(D)->mHDMALenMode.val,
# GPU.cpp:377: }
	.loc 16 377 1
	nop	
	mov	rbx, QWORD PTR [rbp-8]	#,
	leave	
	.cfi_def_cfa 7, 8
	ret	
	.cfi_endproc
.LFE6148:
	.size	_ZN2gb8graphics3GPU14launch_gp_hdmaEv, .-_ZN2gb8graphics3GPU14launch_gp_hdmaEv
	.align 2
	.globl	_ZN2gb8graphics3GPU9step_hdmaEv
	.type	_ZN2gb8graphics3GPU9step_hdmaEv, @function
_ZN2gb8graphics3GPU9step_hdmaEv:
.LFB6149:
	.loc 16 379 37
	.cfi_startproc
	push	rbp	#
	.cfi_def_cfa_offset 16
	.cfi_offset 6, -16
	mov	rbp, rsp	#,
	.cfi_def_cfa_register 6
	push	rbx	#
	sub	rsp, 40	#,
	.cfi_offset 3, -24
	mov	QWORD PTR [rbp-40], rdi	# this, this
# GPU.cpp:380:     uint16_t index = mHDMALenMode.len << 4;
	.loc 16 380 35
	mov	rax, QWORD PTR [rbp-40]	# tmp118, this
	movzx	eax, BYTE PTR [rax+92496]	# tmp120, *this_40(D)
	and	eax, 127	# _1,
	movzx	eax, al	# _2, _1
# GPU.cpp:380:     uint16_t index = mHDMALenMode.len << 4;
	.loc 16 380 14
	sal	eax, 4	# tmp121,
	mov	WORD PTR [rbp-22], ax	# index, tmp121
# GPU.cpp:381:     uint16_t src = ((mHDMASourceHi << 8) | mHDMASourceLo) + index;
	.loc 16 381 22
	mov	rax, QWORD PTR [rbp-40]	# tmp122, this
	movzx	eax, BYTE PTR [rax+92493]	# _3, this_40(D)->mHDMASourceHi
	movzx	eax, al	# _4, _3
# GPU.cpp:381:     uint16_t src = ((mHDMASourceHi << 8) | mHDMASourceLo) + index;
	.loc 16 381 36
	sal	eax, 8	# _5,
# GPU.cpp:381:     uint16_t src = ((mHDMASourceHi << 8) | mHDMASourceLo) + index;
	.loc 16 381 42
	mov	edx, eax	# _6, _5
# GPU.cpp:381:     uint16_t src = ((mHDMASourceHi << 8) | mHDMASourceLo) + index;
	.loc 16 381 44
	mov	rax, QWORD PTR [rbp-40]	# tmp123, this
	movzx	eax, BYTE PTR [rax+92492]	# _7, this_40(D)->mHDMASourceLo
	movzx	eax, al	# _8, _7
# GPU.cpp:381:     uint16_t src = ((mHDMASourceHi << 8) | mHDMASourceLo) + index;
	.loc 16 381 42
	or	eax, edx	# _9, _6
	mov	edx, eax	# _10, _9
# GPU.cpp:381:     uint16_t src = ((mHDMASourceHi << 8) | mHDMASourceLo) + index;
	.loc 16 381 14
	movzx	eax, WORD PTR [rbp-22]	# tmp127, index
	add	eax, edx	# tmp126, _10
	mov	WORD PTR [rbp-24], ax	# src, tmp126
# GPU.cpp:382:     uint16_t dst = ((mHDMADestHi << 8) | mHDMADestLo) + index;
	.loc 16 382 22
	mov	rax, QWORD PTR [rbp-40]	# tmp128, this
	movzx	eax, BYTE PTR [rax+92495]	# _11, this_40(D)->mHDMADestHi
	movzx	eax, al	# _12, _11
# GPU.cpp:382:     uint16_t dst = ((mHDMADestHi << 8) | mHDMADestLo) + index;
	.loc 16 382 34
	sal	eax, 8	# _13,
# GPU.cpp:382:     uint16_t dst = ((mHDMADestHi << 8) | mHDMADestLo) + index;
	.loc 16 382 40
	mov	edx, eax	# _14, _13
# GPU.cpp:382:     uint16_t dst = ((mHDMADestHi << 8) | mHDMADestLo) + index;
	.loc 16 382 42
	mov	rax, QWORD PTR [rbp-40]	# tmp129, this
	movzx	eax, BYTE PTR [rax+92494]	# _15, this_40(D)->mHDMADestLo
	movzx	eax, al	# _16, _15
# GPU.cpp:382:     uint16_t dst = ((mHDMADestHi << 8) | mHDMADestLo) + index;
	.loc 16 382 40
	or	eax, edx	# _17, _14
	mov	edx, eax	# _18, _17
# GPU.cpp:382:     uint16_t dst = ((mHDMADestHi << 8) | mHDMADestLo) + index;
	.loc 16 382 14
	movzx	eax, WORD PTR [rbp-22]	# tmp133, index
	add	eax, edx	# tmp132, _18
	mov	WORD PTR [rbp-26], ax	# dst, tmp132
.LBB79:
# GPU.cpp:383:     for ( int i = 0; i < 0x10; i++ )
	.loc 16 383 15
	mov	DWORD PTR [rbp-20], 0	# i,
# GPU.cpp:383:     for ( int i = 0; i < 0x10; i++ )
	.loc 16 383 5
	jmp	.L257	#
.L258:
# GPU.cpp:384:         m_GB.mmu_->write(dst + i, m_GB.mmu_->read(src + i));
	.loc 16 384 9 discriminator 3
	mov	rax, QWORD PTR [rbp-40]	# tmp134, this
	mov	rax, QWORD PTR [rax]	# _19, this_40(D)->m_GB
# GPU.cpp:384:         m_GB.mmu_->write(dst + i, m_GB.mmu_->read(src + i));
	.loc 16 384 25 discriminator 3
	add	rax, 16	# _20,
	mov	rdi, rax	#, _20
	call	_ZNKSt10unique_ptrIN2gb6memory6MemoryESt14default_deleteIS2_EEptEv	#
	mov	rbx, rax	# _21,
# GPU.cpp:384:         m_GB.mmu_->write(dst + i, m_GB.mmu_->read(src + i));
	.loc 16 384 35 discriminator 3
	mov	rax, QWORD PTR [rbp-40]	# tmp135, this
	mov	rax, QWORD PTR [rax]	# _22, this_40(D)->m_GB
# GPU.cpp:384:         m_GB.mmu_->write(dst + i, m_GB.mmu_->read(src + i));
	.loc 16 384 50 discriminator 3
	add	rax, 16	# _23,
	mov	rdi, rax	#, _23
	call	_ZNKSt10unique_ptrIN2gb6memory6MemoryESt14default_deleteIS2_EEptEv	#
	mov	rdx, rax	# _24,
# GPU.cpp:384:         m_GB.mmu_->write(dst + i, m_GB.mmu_->read(src + i));
	.loc 16 384 55 discriminator 3
	mov	eax, DWORD PTR [rbp-20]	# tmp136, i
	mov	ecx, eax	# _25, tmp136
	movzx	eax, WORD PTR [rbp-24]	# tmp137, src
	add	eax, ecx	# _26, _25
# GPU.cpp:384:         m_GB.mmu_->write(dst + i, m_GB.mmu_->read(src + i));
	.loc 16 384 50 discriminator 3
	movzx	eax, ax	# _27, _26
	mov	esi, eax	#, _27
	mov	rdi, rdx	#, _24
	call	_ZN2gb6memory6Memory4readEt	#
# GPU.cpp:384:         m_GB.mmu_->write(dst + i, m_GB.mmu_->read(src + i));
	.loc 16 384 25 discriminator 3
	movzx	edx, al	# _29, _28
# GPU.cpp:384:         m_GB.mmu_->write(dst + i, m_GB.mmu_->read(src + i));
	.loc 16 384 30 discriminator 3
	mov	eax, DWORD PTR [rbp-20]	# tmp138, i
	mov	ecx, eax	# _30, tmp138
	movzx	eax, WORD PTR [rbp-26]	# tmp139, dst
	add	eax, ecx	# _31, _30
# GPU.cpp:384:         m_GB.mmu_->write(dst + i, m_GB.mmu_->read(src + i));
	.loc 16 384 25 discriminator 3
	movzx	eax, ax	# _32, _31
	mov	esi, eax	#, _32
	mov	rdi, rbx	#, _21
	call	_ZN2gb6memory6Memory5writeEth	#
# GPU.cpp:383:     for ( int i = 0; i < 0x10; i++ )
	.loc 16 383 5 discriminator 3
	add	DWORD PTR [rbp-20], 1	# i,
.L257:
# GPU.cpp:383:     for ( int i = 0; i < 0x10; i++ )
	.loc 16 383 24 discriminator 1
	cmp	DWORD PTR [rbp-20], 15	# i,
	jle	.L258	#,
.LBE79:
# GPU.cpp:385:     if ( --mHDMALenMode.val == 0xFF )
	.loc 16 385 25
	mov	rax, QWORD PTR [rbp-40]	# tmp140, this
	movzx	eax, BYTE PTR [rax+92496]	# _33, this_40(D)->mHDMALenMode.val
# GPU.cpp:385:     if ( --mHDMALenMode.val == 0xFF )
	.loc 16 385 10
	lea	edx, [rax-1]	# _34,
# GPU.cpp:385:     if ( --mHDMALenMode.val == 0xFF )
	.loc 16 385 29
	mov	rax, QWORD PTR [rbp-40]	# tmp141, this
	mov	BYTE PTR [rax+92496], dl	# this_40(D)->mHDMALenMode.val, _34
# GPU.cpp:385:     if ( --mHDMALenMode.val == 0xFF )
	.loc 16 385 25
	mov	rax, QWORD PTR [rbp-40]	# tmp142, this
	movzx	eax, BYTE PTR [rax+92496]	# _35, this_40(D)->mHDMALenMode.val
# GPU.cpp:385:     if ( --mHDMALenMode.val == 0xFF )
	.loc 16 385 29
	cmp	al, -1	# _35,
	sete	al	#, retval.69_46
# GPU.cpp:385:     if ( --mHDMALenMode.val == 0xFF )
	.loc 16 385 5
	test	al, al	# retval.69_46
	je	.L260	#,
# GPU.cpp:386:         mHDMARunning = false;
	.loc 16 386 22
	mov	rax, QWORD PTR [rbp-40]	# tmp143, this
	mov	BYTE PTR [rax+92497], 0	# this_40(D)->mHDMARunning,
.L260:
# GPU.cpp:387: }
	.loc 16 387 1
	nop	
	mov	rbx, QWORD PTR [rbp-8]	#,
	leave	
	.cfi_def_cfa 7, 8
	ret	
	.cfi_endproc
.LFE6149:
	.size	_ZN2gb8graphics3GPU9step_hdmaEv, .-_ZN2gb8graphics3GPU9step_hdmaEv
	.align 2
	.globl	_ZN2gb8graphics3GPU16get_current_modeEv
	.type	_ZN2gb8graphics3GPU16get_current_modeEv, @function
_ZN2gb8graphics3GPU16get_current_modeEv:
.LFB6150:
	.loc 16 389 47
	.cfi_startproc
	push	rbp	#
	.cfi_def_cfa_offset 16
	.cfi_offset 6, -16
	mov	rbp, rsp	#,
	.cfi_def_cfa_register 6
	mov	QWORD PTR [rbp-8], rdi	# this, this
# GPU.cpp:390:     return mLCDStat & 0x3;
	.loc 16 390 12
	mov	rax, QWORD PTR [rbp-8]	# tmp85, this
	movzx	eax, BYTE PTR [rax+92258]	# _1, this_3(D)->mLCDStat
# GPU.cpp:390:     return mLCDStat & 0x3;
	.loc 16 390 23
	and	eax, 3	# _4,
# GPU.cpp:391: }
	.loc 16 391 1
	pop	rbp	#
	.cfi_def_cfa 7, 8
	ret	
	.cfi_endproc
.LFE6150:
	.size	_ZN2gb8graphics3GPU16get_current_modeEv, .-_ZN2gb8graphics3GPU16get_current_modeEv
	.data
	.type	_ZZN2gb8graphics3GPU12update_stateENS1_9Ppu_stateEE15interrupt_masks, @object
	.size	_ZZN2gb8graphics3GPU12update_stateENS1_9Ppu_stateEE15interrupt_masks, 3
_ZZN2gb8graphics3GPU12update_stateENS1_9Ppu_stateEE15interrupt_masks:
# _M_elems:
	.ascii	"\b\020 "
	.text
	.align 2
	.globl	_ZN2gb8graphics3GPU12update_stateENS1_9Ppu_stateE
	.type	_ZN2gb8graphics3GPU12update_stateENS1_9Ppu_stateE, @function
_ZN2gb8graphics3GPU12update_stateENS1_9Ppu_stateE:
.LFB6151:
	.loc 16 393 59
	.cfi_startproc
	push	rbp	#
	.cfi_def_cfa_offset 16
	.cfi_offset 6, -16
	mov	rbp, rsp	#,
	.cfi_def_cfa_register 6
	push	rbx	#
	sub	rsp, 40	#,
	.cfi_offset 3, -24
	mov	QWORD PTR [rbp-40], rdi	# this, this
	mov	eax, esi	# tmp94, new_state
	mov	BYTE PTR [rbp-44], al	# new_state, tmp95
# GPU.cpp:400:     state_ = new_state;
	.loc 16 400 12
	mov	rax, QWORD PTR [rbp-40]	# tmp96, this
	movzx	edx, BYTE PTR [rbp-44]	# tmp97, new_state
	mov	BYTE PTR [rax+92256], dl	# this_14(D)->state_, tmp97
# GPU.cpp:402:     mLCDStat &= 0xFC;
	.loc 16 402 14
	mov	rax, QWORD PTR [rbp-40]	# tmp98, this
	movzx	eax, BYTE PTR [rax+92258]	# _1, this_14(D)->mLCDStat
	and	eax, -4	# _1,
	mov	edx, eax	# _2, _1
	mov	rax, QWORD PTR [rbp-40]	# tmp99, this
	mov	BYTE PTR [rax+92258], dl	# this_14(D)->mLCDStat, _2
# GPU.cpp:403:     auto state_val = static_cast<std::underlying_type<Ppu_state>::type>(new_state);
	.loc 16 403 10
	movzx	eax, BYTE PTR [rbp-44]	# tmp100, new_state
	mov	BYTE PTR [rbp-17], al	# state_val, tmp100
# GPU.cpp:404:     mLCDStat |= state_val;
	.loc 16 404 14
	mov	rax, QWORD PTR [rbp-40]	# tmp101, this
	movzx	eax, BYTE PTR [rax+92258]	# _3, this_14(D)->mLCDStat
	or	al, BYTE PTR [rbp-17]	# _3, state_val
	mov	edx, eax	# _4, _3
	mov	rax, QWORD PTR [rbp-40]	# tmp102, this
	mov	BYTE PTR [rax+92258], dl	# this_14(D)->mLCDStat, _4
# GPU.cpp:405:     if ( mLCDStat & interrupt_masks[state_val] ) {
	.loc 16 405 10
	mov	rax, QWORD PTR [rbp-40]	# tmp103, this
	movzx	ebx, BYTE PTR [rax+92258]	# _5, this_14(D)->mLCDStat
# GPU.cpp:405:     if ( mLCDStat & interrupt_masks[state_val] ) {
	.loc 16 405 46
	movzx	eax, BYTE PTR [rbp-17]	# _6, state_val
	mov	rsi, rax	#, _6
	mov	edi, OFFSET FLAT:_ZZN2gb8graphics3GPU12update_stateENS1_9Ppu_stateEE15interrupt_masks	#,
	call	_ZNSt5arrayIhLm3EEixEm	#
# GPU.cpp:405:     if ( mLCDStat & interrupt_masks[state_val] ) {
	.loc 16 405 19
	movzx	eax, BYTE PTR [rax]	# _8, *_7
	and	eax, ebx	# _9, _5
	test	al, al	# _9
	setne	al	#, retval.70_21
# GPU.cpp:405:     if ( mLCDStat & interrupt_masks[state_val] ) {
	.loc 16 405 5
	test	al, al	# retval.70_21
	je	.L265	#,
# GPU.cpp:406:         interrupts_->request(cpu::Interrupts::lcd);
	.loc 16 406 9
	mov	rax, QWORD PTR [rbp-40]	# tmp104, this
	add	rax, 8	# _10,
# GPU.cpp:406:         interrupts_->request(cpu::Interrupts::lcd);
	.loc 16 406 29
	mov	rdi, rax	#, _10
	call	_ZNKSt19__shared_ptr_accessIN2gb3cpu10InterruptsELN9__gnu_cxx12_Lock_policyE2ELb0ELb0EEptEv	#
	mov	esi, 1	#,
	mov	rdi, rax	#, _11
	call	_ZN2gb3cpu10Interrupts7requestEi	#
.L265:
# GPU.cpp:408: }
	.loc 16 408 1
	nop	
	mov	rbx, QWORD PTR [rbp-8]	#,
	leave	
	.cfi_def_cfa 7, 8
	ret	
	.cfi_endproc
.LFE6151:
	.size	_ZN2gb8graphics3GPU12update_stateENS1_9Ppu_stateE, .-_ZN2gb8graphics3GPU12update_stateENS1_9Ppu_stateE
	.align 2
	.type	_ZZN2gb8graphics3GPU13Pixel_fetcher4stepEvENKUlvE_clEv, @function
_ZZN2gb8graphics3GPU13Pixel_fetcher4stepEvENKUlvE_clEv:
.LFB6153:
	.loc 16 412 45
	.cfi_startproc
	push	rbp	#
	.cfi_def_cfa_offset 16
	.cfi_offset 6, -16
	mov	rbp, rsp	#,
	.cfi_def_cfa_register 6
	sub	rsp, 16	#,
	mov	QWORD PTR [rbp-8], rdi	# __closure, __closure
# GPU.cpp:412:             {Pixel_fetcher_state::get_tile, [this]() {
	.loc 16 412 52
	mov	rax, QWORD PTR [rbp-8]	# tmp109, __closure
	mov	rax, QWORD PTR [rax]	# _1, __closure_30(D)->__this
# GPU.cpp:413:                 if (increment_dot_clock()) {
	.loc 16 413 40
	mov	rdi, rax	#, _1
	call	_ZN2gb8graphics3GPU13Pixel_fetcher19increment_dot_clockEv	#
# GPU.cpp:413:                 if (increment_dot_clock()) {
	.loc 16 413 17
	test	al, al	# retval.74_32
	je	.L269	#,
# GPU.cpp:412:             {Pixel_fetcher_state::get_tile, [this]() {
	.loc 16 412 52
	mov	rax, QWORD PTR [rbp-8]	# tmp110, __closure
	mov	rax, QWORD PTR [rax]	# _2, __closure_30(D)->__this
# GPU.cpp:414:                     if ( !rendering_sprites ) {
	.loc 16 414 27
	movzx	eax, BYTE PTR [rax+48]	# _3, _2->rendering_sprites
# GPU.cpp:414:                     if ( !rendering_sprites ) {
	.loc 16 414 26
	xor	eax, 1	# _4,
# GPU.cpp:414:                     if ( !rendering_sprites ) {
	.loc 16 414 21
	test	al, al	# _4
	je	.L268	#,
# GPU.cpp:412:             {Pixel_fetcher_state::get_tile, [this]() {
	.loc 16 412 52
	mov	rax, QWORD PTR [rbp-8]	# tmp111, __closure
	mov	rax, QWORD PTR [rax]	# _5, __closure_30(D)->__this
# GPU.cpp:415:                         tile_index_ = (int) g.read_vram(tile_row_addr_ + tile_row_index_, 0);
	.loc 16 415 45
	mov	rax, QWORD PTR [rax+40]	# _6, _5->g
# GPU.cpp:412:             {Pixel_fetcher_state::get_tile, [this]() {
	.loc 16 412 52
	mov	rdx, QWORD PTR [rbp-8]	# tmp112, __closure
	mov	rdx, QWORD PTR [rdx]	# _7, __closure_30(D)->__this
# GPU.cpp:415:                         tile_index_ = (int) g.read_vram(tile_row_addr_ + tile_row_index_, 0);
	.loc 16 415 57
	movzx	ecx, WORD PTR [rdx+24]	# _8, _7->tile_row_addr_
# GPU.cpp:412:             {Pixel_fetcher_state::get_tile, [this]() {
	.loc 16 412 52
	mov	rdx, QWORD PTR [rbp-8]	# tmp113, __closure
	mov	rdx, QWORD PTR [rdx]	# _9, __closure_30(D)->__this
# GPU.cpp:415:                         tile_index_ = (int) g.read_vram(tile_row_addr_ + tile_row_index_, 0);
	.loc 16 415 74
	movzx	edx, WORD PTR [rdx+4]	# _10, _9->tile_row_index_
# GPU.cpp:415:                         tile_index_ = (int) g.read_vram(tile_row_addr_ + tile_row_index_, 0);
	.loc 16 415 72
	add	edx, ecx	# _11, _8
# GPU.cpp:415:                         tile_index_ = (int) g.read_vram(tile_row_addr_ + tile_row_index_, 0);
	.loc 16 415 56
	movzx	ecx, dx	# _12, _11
	mov	edx, 0	#,
	mov	esi, ecx	#, _12
	mov	rdi, rax	#, _6
	call	_ZN2gb8graphics3GPU9read_vramEti	#
	mov	edx, eax	# _13,
# GPU.cpp:412:             {Pixel_fetcher_state::get_tile, [this]() {
	.loc 16 412 52
	mov	rax, QWORD PTR [rbp-8]	# tmp114, __closure
	mov	rax, QWORD PTR [rax]	# _14, __closure_30(D)->__this
# GPU.cpp:415:                         tile_index_ = (int) g.read_vram(tile_row_addr_ + tile_row_index_, 0);
	.loc 16 415 39
	movzx	edx, dl	# _15, _13
# GPU.cpp:415:                         tile_index_ = (int) g.read_vram(tile_row_addr_ + tile_row_index_, 0);
	.loc 16 415 37
	mov	DWORD PTR [rax+8], edx	# _14->tile_index_, _15
# GPU.cpp:412:             {Pixel_fetcher_state::get_tile, [this]() {
	.loc 16 412 52
	mov	rax, QWORD PTR [rbp-8]	# tmp115, __closure
	mov	rax, QWORD PTR [rax]	# _16, __closure_30(D)->__this
# GPU.cpp:416:                         if (!g.mLCDC.bg_window_tile_data)
	.loc 16 416 30
	mov	rax, QWORD PTR [rax+40]	# _17, _16->g
# GPU.cpp:416:                         if (!g.mLCDC.bg_window_tile_data)
	.loc 16 416 29
	movzx	eax, BYTE PTR [rax+92257]	# _18, _17->mLCDC.D.75647
	and	eax, 16	# _19,
# GPU.cpp:416:                         if (!g.mLCDC.bg_window_tile_data)
	.loc 16 416 25
	test	al, al	# _19
	jne	.L268	#,
# GPU.cpp:412:             {Pixel_fetcher_state::get_tile, [this]() {
	.loc 16 412 52
	mov	rax, QWORD PTR [rbp-8]	# tmp116, __closure
	mov	rax, QWORD PTR [rax]	# _20, __closure_30(D)->__this
# GPU.cpp:417:                             tile_index_ = ((int8_t) tile_index_) + 256;
	.loc 16 417 53
	mov	eax, DWORD PTR [rax+8]	# _21, _20->tile_index_
# GPU.cpp:417:                             tile_index_ = ((int8_t) tile_index_) + 256;
	.loc 16 417 44
	movsx	edx, al	# _23, _22
# GPU.cpp:412:             {Pixel_fetcher_state::get_tile, [this]() {
	.loc 16 412 52
	mov	rax, QWORD PTR [rbp-8]	# tmp117, __closure
	mov	rax, QWORD PTR [rax]	# _24, __closure_30(D)->__this
# GPU.cpp:417:                             tile_index_ = ((int8_t) tile_index_) + 256;
	.loc 16 417 66
	add	edx, 256	# _25,
# GPU.cpp:417:                             tile_index_ = ((int8_t) tile_index_) + 256;
	.loc 16 417 41
	mov	DWORD PTR [rax+8], edx	# _24->tile_index_, _25
.L268:
# GPU.cpp:412:             {Pixel_fetcher_state::get_tile, [this]() {
	.loc 16 412 52
	mov	rax, QWORD PTR [rbp-8]	# tmp118, __closure
	mov	rax, QWORD PTR [rax]	# _26, __closure_30(D)->__this
# GPU.cpp:419:                     fetcher_state_ = Pixel_fetcher_state::get_tile_data_low;
	.loc 16 419 36
	mov	DWORD PTR [rax], 1	# _26->fetcher_state_,
.L269:
# GPU.cpp:421:             }},
	.loc 16 421 13
	nop	
	leave	
	.cfi_def_cfa 7, 8
	ret	
	.cfi_endproc
.LFE6153:
	.size	_ZZN2gb8graphics3GPU13Pixel_fetcher4stepEvENKUlvE_clEv, .-_ZZN2gb8graphics3GPU13Pixel_fetcher4stepEvENKUlvE_clEv
	.align 2
	.type	_ZZN2gb8graphics3GPU13Pixel_fetcher4stepEvENKUlvE0_clEv, @function
_ZZN2gb8graphics3GPU13Pixel_fetcher4stepEvENKUlvE0_clEv:
.LFB6154:
	.loc 16 422 54
	.cfi_startproc
	push	rbp	#
	.cfi_def_cfa_offset 16
	.cfi_offset 6, -16
	mov	rbp, rsp	#,
	.cfi_def_cfa_register 6
	sub	rsp, 16	#,
	mov	QWORD PTR [rbp-8], rdi	# __closure, __closure
# GPU.cpp:422:             {Pixel_fetcher_state::get_tile_data_low, [this]() {
	.loc 16 422 61
	mov	rax, QWORD PTR [rbp-8]	# tmp85, __closure
	mov	rax, QWORD PTR [rax]	# _1, __closure_5(D)->__this
# GPU.cpp:423:                 if ( increment_dot_clock() )
	.loc 16 423 41
	mov	rdi, rax	#, _1
	call	_ZN2gb8graphics3GPU13Pixel_fetcher19increment_dot_clockEv	#
# GPU.cpp:423:                 if ( increment_dot_clock() )
	.loc 16 423 17
	test	al, al	# retval.78_7
	je	.L272	#,
# GPU.cpp:422:             {Pixel_fetcher_state::get_tile_data_low, [this]() {
	.loc 16 422 61
	mov	rax, QWORD PTR [rbp-8]	# tmp86, __closure
	mov	rax, QWORD PTR [rax]	# _2, __closure_5(D)->__this
# GPU.cpp:424:                     fetcher_state_ = Pixel_fetcher_state::get_tile_data_high;
	.loc 16 424 36
	mov	DWORD PTR [rax], 2	# _2->fetcher_state_,
.L272:
# GPU.cpp:425:             }},
	.loc 16 425 13
	nop	
	leave	
	.cfi_def_cfa 7, 8
	ret	
	.cfi_endproc
.LFE6154:
	.size	_ZZN2gb8graphics3GPU13Pixel_fetcher4stepEvENKUlvE0_clEv, .-_ZZN2gb8graphics3GPU13Pixel_fetcher4stepEvENKUlvE0_clEv
	.align 2
	.type	_ZZN2gb8graphics3GPU13Pixel_fetcher4stepEvENKUlvE1_clEv, @function
_ZZN2gb8graphics3GPU13Pixel_fetcher4stepEvENKUlvE1_clEv:
.LFB6155:
	.loc 16 426 55
	.cfi_startproc
	push	rbp	#
	.cfi_def_cfa_offset 16
	.cfi_offset 6, -16
	mov	rbp, rsp	#,
	.cfi_def_cfa_register 6
	sub	rsp, 16	#,
	mov	QWORD PTR [rbp-8], rdi	# __closure, __closure
# GPU.cpp:426:             {Pixel_fetcher_state::get_tile_data_high, [this]() {
	.loc 16 426 62
	mov	rax, QWORD PTR [rbp-8]	# tmp99, __closure
	mov	rax, QWORD PTR [rax]	# _1, __closure_19(D)->__this
# GPU.cpp:427:                 if ( increment_dot_clock() ) {
	.loc 16 427 41
	mov	rdi, rax	#, _1
	call	_ZN2gb8graphics3GPU13Pixel_fetcher19increment_dot_clockEv	#
# GPU.cpp:427:                 if ( increment_dot_clock() ) {
	.loc 16 427 17
	test	al, al	# retval.82_21
	je	.L280	#,
# GPU.cpp:426:             {Pixel_fetcher_state::get_tile_data_high, [this]() {
	.loc 16 426 62
	mov	rax, QWORD PTR [rbp-8]	# tmp100, __closure
	mov	rax, QWORD PTR [rax]	# _2, __closure_19(D)->__this
# GPU.cpp:428:                     if ( !rendering_sprites )
	.loc 16 428 27
	movzx	eax, BYTE PTR [rax+48]	# _3, _2->rendering_sprites
# GPU.cpp:428:                     if ( !rendering_sprites )
	.loc 16 428 26
	xor	eax, 1	# _4,
# GPU.cpp:428:                     if ( !rendering_sprites )
	.loc 16 428 21
	test	al, al	# _4
	je	.L275	#,
# GPU.cpp:426:             {Pixel_fetcher_state::get_tile_data_high, [this]() {
	.loc 16 426 62
	mov	rax, QWORD PTR [rbp-8]	# tmp101, __closure
	mov	rax, QWORD PTR [rax]	# _5, __closure_19(D)->__this
# GPU.cpp:429:                         fetcher_state_ = g.bg_fifo.size() <= 8 ? Pixel_fetcher_state::push : Pixel_fetcher_state::sleep;
	.loc 16 429 42
	mov	rax, QWORD PTR [rax+40]	# _6, _5->g
# GPU.cpp:429:                         fetcher_state_ = g.bg_fifo.size() <= 8 ? Pixel_fetcher_state::push : Pixel_fetcher_state::sleep;
	.loc 16 429 56
	add	rax, 92272	# _7,
	mov	rdi, rax	#, _7
	call	_ZNKSt5queueIjSt5dequeIjSaIjEEE4sizeEv	#
# GPU.cpp:429:                         fetcher_state_ = g.bg_fifo.size() <= 8 ? Pixel_fetcher_state::push : Pixel_fetcher_state::sleep;
	.loc 16 429 64
	cmp	rax, 8	# _8,
	ja	.L276	#,
# GPU.cpp:429:                         fetcher_state_ = g.bg_fifo.size() <= 8 ? Pixel_fetcher_state::push : Pixel_fetcher_state::sleep;
	.loc 16 429 64 is_stmt 0 discriminator 1
	mov	edx, 4	# iftmp.83_15,
	jmp	.L277	#
.L276:
# GPU.cpp:429:                         fetcher_state_ = g.bg_fifo.size() <= 8 ? Pixel_fetcher_state::push : Pixel_fetcher_state::sleep;
	.loc 16 429 64 discriminator 2
	mov	edx, 3	# iftmp.83_15,
.L277:
# GPU.cpp:426:             {Pixel_fetcher_state::get_tile_data_high, [this]() {
	.loc 16 426 62 is_stmt 1 discriminator 4
	mov	rax, QWORD PTR [rbp-8]	# tmp102, __closure
	mov	rax, QWORD PTR [rax]	# _9, __closure_19(D)->__this
# GPU.cpp:429:                         fetcher_state_ = g.bg_fifo.size() <= 8 ? Pixel_fetcher_state::push : Pixel_fetcher_state::sleep;
	.loc 16 429 40 discriminator 4
	mov	DWORD PTR [rax], edx	# _9->fetcher_state_, iftmp.83_15
# GPU.cpp:433:             }},
	.loc 16 433 13 discriminator 4
	jmp	.L280	#
.L275:
# GPU.cpp:426:             {Pixel_fetcher_state::get_tile_data_high, [this]() {
	.loc 16 426 62
	mov	rax, QWORD PTR [rbp-8]	# tmp103, __closure
	mov	rax, QWORD PTR [rax]	# _10, __closure_19(D)->__this
# GPU.cpp:431:                         fetcher_state_ = g.spr_fifo.size() <= 8 ? Pixel_fetcher_state::push : Pixel_fetcher_state::sleep;
	.loc 16 431 42
	mov	rax, QWORD PTR [rax+40]	# _11, _10->g
# GPU.cpp:431:                         fetcher_state_ = g.spr_fifo.size() <= 8 ? Pixel_fetcher_state::push : Pixel_fetcher_state::sleep;
	.loc 16 431 57
	add	rax, 92352	# _12,
	mov	rdi, rax	#, _12
	call	_ZNKSt5dequeIN2gb8graphics3GPU12Sprite_pixelESaIS3_EE4sizeEv	#
# GPU.cpp:431:                         fetcher_state_ = g.spr_fifo.size() <= 8 ? Pixel_fetcher_state::push : Pixel_fetcher_state::sleep;
	.loc 16 431 65
	cmp	rax, 8	# _13,
	ja	.L278	#,
# GPU.cpp:431:                         fetcher_state_ = g.spr_fifo.size() <= 8 ? Pixel_fetcher_state::push : Pixel_fetcher_state::sleep;
	.loc 16 431 65 is_stmt 0 discriminator 1
	mov	edx, 4	# iftmp.84_16,
	jmp	.L279	#
.L278:
# GPU.cpp:431:                         fetcher_state_ = g.spr_fifo.size() <= 8 ? Pixel_fetcher_state::push : Pixel_fetcher_state::sleep;
	.loc 16 431 65 discriminator 2
	mov	edx, 3	# iftmp.84_16,
.L279:
# GPU.cpp:426:             {Pixel_fetcher_state::get_tile_data_high, [this]() {
	.loc 16 426 62 is_stmt 1 discriminator 4
	mov	rax, QWORD PTR [rbp-8]	# tmp104, __closure
	mov	rax, QWORD PTR [rax]	# _14, __closure_19(D)->__this
# GPU.cpp:431:                         fetcher_state_ = g.spr_fifo.size() <= 8 ? Pixel_fetcher_state::push : Pixel_fetcher_state::sleep;
	.loc 16 431 40 discriminator 4
	mov	DWORD PTR [rax], edx	# _14->fetcher_state_, iftmp.84_16
.L280:
# GPU.cpp:433:             }},
	.loc 16 433 13
	nop	
	leave	
	.cfi_def_cfa 7, 8
	ret	
	.cfi_endproc
.LFE6155:
	.size	_ZZN2gb8graphics3GPU13Pixel_fetcher4stepEvENKUlvE1_clEv, .-_ZZN2gb8graphics3GPU13Pixel_fetcher4stepEvENKUlvE1_clEv
	.align 2
	.type	_ZZN2gb8graphics3GPU13Pixel_fetcher4stepEvENKUlvE2_clEv, @function
_ZZN2gb8graphics3GPU13Pixel_fetcher4stepEvENKUlvE2_clEv:
.LFB6156:
	.loc 16 434 42
	.cfi_startproc
	push	rbp	#
	.cfi_def_cfa_offset 16
	.cfi_offset 6, -16
	mov	rbp, rsp	#,
	.cfi_def_cfa_register 6
	sub	rsp, 16	#,
	mov	QWORD PTR [rbp-8], rdi	# __closure, __closure
# GPU.cpp:434:             {Pixel_fetcher_state::sleep, [this]() {
	.loc 16 434 49
	mov	rax, QWORD PTR [rbp-8]	# tmp85, __closure
	mov	rax, QWORD PTR [rax]	# _1, __closure_5(D)->__this
# GPU.cpp:435:                 if ( increment_dot_clock() )
	.loc 16 435 41
	mov	rdi, rax	#, _1
	call	_ZN2gb8graphics3GPU13Pixel_fetcher19increment_dot_clockEv	#
# GPU.cpp:435:                 if ( increment_dot_clock() )
	.loc 16 435 17
	test	al, al	# retval.88_7
	je	.L283	#,
# GPU.cpp:434:             {Pixel_fetcher_state::sleep, [this]() {
	.loc 16 434 49
	mov	rax, QWORD PTR [rbp-8]	# tmp86, __closure
	mov	rax, QWORD PTR [rax]	# _2, __closure_5(D)->__this
# GPU.cpp:436:                     fetcher_state_ = Pixel_fetcher_state::push;
	.loc 16 436 36
	mov	DWORD PTR [rax], 4	# _2->fetcher_state_,
.L283:
# GPU.cpp:437:             }},
	.loc 16 437 13
	nop	
	leave	
	.cfi_def_cfa 7, 8
	ret	
	.cfi_endproc
.LFE6156:
	.size	_ZZN2gb8graphics3GPU13Pixel_fetcher4stepEvENKUlvE2_clEv, .-_ZZN2gb8graphics3GPU13Pixel_fetcher4stepEvENKUlvE2_clEv
	.align 2
	.type	_ZZN2gb8graphics3GPU13Pixel_fetcher4stepEvENKUlvE3_clEv, @function
_ZZN2gb8graphics3GPU13Pixel_fetcher4stepEvENKUlvE3_clEv:
.LFB6157:
	.loc 16 438 41
	.cfi_startproc
	push	rbp	#
	.cfi_def_cfa_offset 16
	.cfi_offset 6, -16
	mov	rbp, rsp	#,
	.cfi_def_cfa_register 6
	push	rbx	#
	sub	rsp, 40	#,
	.cfi_offset 3, -24
	mov	QWORD PTR [rbp-40], rdi	# __closure, __closure
.LBB80:
.LBB81:
# GPU.cpp:438:             {Pixel_fetcher_state::push, [this]() {
	.loc 16 438 48
	mov	rax, QWORD PTR [rbp-40]	# tmp147, __closure
	mov	rax, QWORD PTR [rax]	# _1, __closure_72(D)->__this
# GPU.cpp:439:                 if ( !rendering_sprites ) {
	.loc 16 439 23
	movzx	eax, BYTE PTR [rax+48]	# _2, _1->rendering_sprites
# GPU.cpp:439:                 if ( !rendering_sprites ) {
	.loc 16 439 22
	xor	eax, 1	# _3,
# GPU.cpp:439:                 if ( !rendering_sprites ) {
	.loc 16 439 17
	test	al, al	# _3
	je	.L285	#,
.LBB82:
.LBB83:
# GPU.cpp:438:             {Pixel_fetcher_state::push, [this]() {
	.loc 16 438 48
	mov	rax, QWORD PTR [rbp-40]	# tmp148, __closure
	mov	rax, QWORD PTR [rax]	# _4, __closure_72(D)->__this
# GPU.cpp:440:                     if (g.bg_fifo.size() <= 8) {
	.loc 16 440 25
	mov	rax, QWORD PTR [rax+40]	# _5, _4->g
# GPU.cpp:440:                     if (g.bg_fifo.size() <= 8) {
	.loc 16 440 39
	add	rax, 92272	# _6,
	mov	rdi, rax	#, _6
	call	_ZNKSt5queueIjSt5dequeIjSaIjEEE4sizeEv	#
# GPU.cpp:440:                     if (g.bg_fifo.size() <= 8) {
	.loc 16 440 42
	cmp	rax, 8	# _7,
	setbe	al	#, retval.92_91
# GPU.cpp:440:                     if (g.bg_fifo.size() <= 8) {
	.loc 16 440 21
	test	al, al	# retval.92_91
	je	.L286	#,
.LBB84:
# GPU.cpp:441:                         int tile_x = 7;
	.loc 16 441 29
	mov	DWORD PTR [rbp-20], 7	# tile_x,
# GPU.cpp:442:                         while (scroll_pixels > 0) {
	.loc 16 442 25
	jmp	.L287	#
.L288:
# GPU.cpp:443:                             tile_x--;
	.loc 16 443 35
	sub	DWORD PTR [rbp-20], 1	# tile_x,
# GPU.cpp:438:             {Pixel_fetcher_state::push, [this]() {
	.loc 16 438 48
	mov	rax, QWORD PTR [rbp-40]	# tmp149, __closure
	mov	rax, QWORD PTR [rax]	# _8, __closure_72(D)->__this
# GPU.cpp:444:                             scroll_pixels--;
	.loc 16 444 29
	mov	edx, DWORD PTR [rax+32]	# _9, _8->scroll_pixels
# GPU.cpp:444:                             scroll_pixels--;
	.loc 16 444 42
	sub	edx, 1	# _10,
	mov	DWORD PTR [rax+32], edx	# _8->scroll_pixels, _10
.L287:
# GPU.cpp:438:             {Pixel_fetcher_state::push, [this]() {
	.loc 16 438 48
	mov	rax, QWORD PTR [rbp-40]	# tmp150, __closure
	mov	rax, QWORD PTR [rax]	# _11, __closure_72(D)->__this
# GPU.cpp:442:                         while (scroll_pixels > 0) {
	.loc 16 442 32
	mov	eax, DWORD PTR [rax+32]	# _12, _11->scroll_pixels
# GPU.cpp:442:                         while (scroll_pixels > 0) {
	.loc 16 442 46
	test	eax, eax	# _12
	jg	.L288	#,
# GPU.cpp:446:                         while (tile_x >= 0) {
	.loc 16 446 25
	jmp	.L289	#
.L290:
# GPU.cpp:438:             {Pixel_fetcher_state::push, [this]() {
	.loc 16 438 48
	mov	rax, QWORD PTR [rbp-40]	# tmp151, __closure
	mov	rax, QWORD PTR [rax]	# _13, __closure_72(D)->__this
# GPU.cpp:447:                             g.bg_fifo.push(tileset[tile_index_].get_color(tile_x, tile_y));
	.loc 16 447 29
	mov	rax, QWORD PTR [rax+40]	# _14, _13->g
# GPU.cpp:447:                             g.bg_fifo.push(tileset[tile_index_].get_color(tile_x, tile_y));
	.loc 16 447 43
	lea	rbx, [rax+92272]	# _15,
# GPU.cpp:438:             {Pixel_fetcher_state::push, [this]() {
	.loc 16 438 48
	mov	rax, QWORD PTR [rbp-40]	# tmp152, __closure
	mov	rax, QWORD PTR [rax]	# _16, __closure_72(D)->__this
# GPU.cpp:447:                             g.bg_fifo.push(tileset[tile_index_].get_color(tile_x, tile_y));
	.loc 16 447 52
	mov	eax, DWORD PTR [rax+8]	# _17, _16->tile_index_
# GPU.cpp:447:                             g.bg_fifo.push(tileset[tile_index_].get_color(tile_x, tile_y));
	.loc 16 447 63
	cdqe
	mov	rsi, rax	#, _18
	mov	edi, OFFSET FLAT:_ZN12_GLOBAL__N_17tilesetE	#,
	call	_ZNSt6vectorI4TileSaIS0_EEixEm	#
	mov	rcx, rax	# _19,
# GPU.cpp:438:             {Pixel_fetcher_state::push, [this]() {
	.loc 16 438 48
	mov	rax, QWORD PTR [rbp-40]	# tmp153, __closure
	mov	rax, QWORD PTR [rax]	# _20, __closure_72(D)->__this
# GPU.cpp:447:                             g.bg_fifo.push(tileset[tile_index_].get_color(tile_x, tile_y));
	.loc 16 447 74
	mov	edx, DWORD PTR [rax+28]	# _21, _20->tile_y
	mov	eax, DWORD PTR [rbp-20]	# tmp154, tile_x
	mov	esi, eax	#, tmp154
	mov	rdi, rcx	#, _19
	call	_ZN4Tile9get_colorEii	#
	movzx	eax, al	# _23, _22
	mov	DWORD PTR [rbp-28], eax	# D.154034, _23
# GPU.cpp:447:                             g.bg_fifo.push(tileset[tile_index_].get_color(tile_x, tile_y));
	.loc 16 447 43
	lea	rax, [rbp-28]	# tmp155,
	mov	rsi, rax	#, tmp155
	mov	rdi, rbx	#, _15
	call	_ZNSt5queueIjSt5dequeIjSaIjEEE4pushEOj	#
# GPU.cpp:448:                             tile_x--;
	.loc 16 448 35
	sub	DWORD PTR [rbp-20], 1	# tile_x,
.L289:
# GPU.cpp:446:                         while (tile_x >= 0) {
	.loc 16 446 39
	cmp	DWORD PTR [rbp-20], 0	# tile_x,
	jns	.L290	#,
# GPU.cpp:438:             {Pixel_fetcher_state::push, [this]() {
	.loc 16 438 48
	mov	rax, QWORD PTR [rbp-40]	# tmp156, __closure
	mov	rax, QWORD PTR [rax]	# _24, __closure_72(D)->__this
# GPU.cpp:450:                         tile_row_index_ = (tile_row_index_ + 1) & 0x1F;
	.loc 16 450 44
	movzx	eax, WORD PTR [rax+4]	# _25, _24->tile_row_index_
# GPU.cpp:450:                         tile_row_index_ = (tile_row_index_ + 1) & 0x1F;
	.loc 16 450 60
	lea	edx, [rax+1]	# _26,
# GPU.cpp:438:             {Pixel_fetcher_state::push, [this]() {
	.loc 16 438 48
	mov	rax, QWORD PTR [rbp-40]	# tmp157, __closure
	mov	rax, QWORD PTR [rax]	# _27, __closure_72(D)->__this
# GPU.cpp:450:                         tile_row_index_ = (tile_row_index_ + 1) & 0x1F;
	.loc 16 450 65
	and	edx, 31	# _28,
# GPU.cpp:450:                         tile_row_index_ = (tile_row_index_ + 1) & 0x1F;
	.loc 16 450 41
	mov	WORD PTR [rax+4], dx	# _27->tile_row_index_, _28
.LBE84:
	jmp	.L286	#
.L285:
.LBE83:
.LBE82:
.LBB85:
.LBB86:
# GPU.cpp:438:             {Pixel_fetcher_state::push, [this]() {
	.loc 16 438 48
	mov	rax, QWORD PTR [rbp-40]	# tmp158, __closure
	mov	rax, QWORD PTR [rax]	# _29, __closure_72(D)->__this
# GPU.cpp:453:                     if ( g.spr_fifo.size() <= 8 ) {
	.loc 16 453 26
	mov	rax, QWORD PTR [rax+40]	# _30, _29->g
# GPU.cpp:453:                     if ( g.spr_fifo.size() <= 8 ) {
	.loc 16 453 41
	add	rax, 92352	# _31,
	mov	rdi, rax	#, _31
	call	_ZNKSt5dequeIN2gb8graphics3GPU12Sprite_pixelESaIS3_EE4sizeEv	#
# GPU.cpp:453:                     if ( g.spr_fifo.size() <= 8 ) {
	.loc 16 453 44
	cmp	rax, 8	# _32,
	setbe	al	#, retval.93_74
# GPU.cpp:453:                     if ( g.spr_fifo.size() <= 8 ) {
	.loc 16 453 21
	test	al, al	# retval.93_74
	je	.L286	#,
.LBB87:
.LBB88:
# GPU.cpp:454:                         for (int tile_x = 0; tile_x <= 7; tile_x++) {
	.loc 16 454 34
	mov	DWORD PTR [rbp-24], 0	# tile_x,
# GPU.cpp:454:                         for (int tile_x = 0; tile_x <= 7; tile_x++) {
	.loc 16 454 25
	jmp	.L291	#
.L295:
.LBB89:
# GPU.cpp:438:             {Pixel_fetcher_state::push, [this]() {
	.loc 16 438 48
	mov	rax, QWORD PTR [rbp-40]	# tmp159, __closure
	mov	rax, QWORD PTR [rax]	# _33, __closure_72(D)->__this
# GPU.cpp:455:                             Sprite_pixel p = {tileset[sprite_tile_index_].get_color(((spr.attributes >> 5) & 1) ? tile_x : (7 - tile_x), sprite_tile_y),
	.loc 16 455 55
	movzx	eax, BYTE PTR [rax+12]	# _34, _33->sprite_tile_index_
# GPU.cpp:455:                             Sprite_pixel p = {tileset[sprite_tile_index_].get_color(((spr.attributes >> 5) & 1) ? tile_x : (7 - tile_x), sprite_tile_y),
	.loc 16 455 73
	movzx	eax, al	# _35, _34
	mov	rsi, rax	#, _35
	mov	edi, OFFSET FLAT:_ZN12_GLOBAL__N_17tilesetE	#,
	call	_ZNSt6vectorI4TileSaIS0_EEixEm	#
	mov	rcx, rax	# _36,
# GPU.cpp:438:             {Pixel_fetcher_state::push, [this]() {
	.loc 16 438 48
	mov	rax, QWORD PTR [rbp-40]	# tmp160, __closure
	mov	rax, QWORD PTR [rax]	# _37, __closure_72(D)->__this
# GPU.cpp:455:                             Sprite_pixel p = {tileset[sprite_tile_index_].get_color(((spr.attributes >> 5) & 1) ? tile_x : (7 - tile_x), sprite_tile_y),
	.loc 16 455 84
	mov	edx, DWORD PTR [rax+16]	# _38, _37->sprite_tile_y
# GPU.cpp:438:             {Pixel_fetcher_state::push, [this]() {
	.loc 16 438 48
	mov	rax, QWORD PTR [rbp-40]	# tmp161, __closure
	mov	rax, QWORD PTR [rax]	# _39, __closure_72(D)->__this
# GPU.cpp:455:                             Sprite_pixel p = {tileset[sprite_tile_index_].get_color(((spr.attributes >> 5) & 1) ? tile_x : (7 - tile_x), sprite_tile_y),
	.loc 16 455 91
	movzx	eax, BYTE PTR [rax+53]	# _40, _39->spr.attributes
# GPU.cpp:455:                             Sprite_pixel p = {tileset[sprite_tile_index_].get_color(((spr.attributes >> 5) & 1) ? tile_x : (7 - tile_x), sprite_tile_y),
	.loc 16 455 102
	shr	al, 5	# _41,
# GPU.cpp:455:                             Sprite_pixel p = {tileset[sprite_tile_index_].get_color(((spr.attributes >> 5) & 1) ? tile_x : (7 - tile_x), sprite_tile_y),
	.loc 16 455 108
	movzx	eax, al	# _42, _41
	and	eax, 1	# _43,
# GPU.cpp:455:                             Sprite_pixel p = {tileset[sprite_tile_index_].get_color(((spr.attributes >> 5) & 1) ? tile_x : (7 - tile_x), sprite_tile_y),
	.loc 16 455 84
	test	eax, eax	# _43
	jne	.L292	#,
# GPU.cpp:455:                             Sprite_pixel p = {tileset[sprite_tile_index_].get_color(((spr.attributes >> 5) & 1) ? tile_x : (7 - tile_x), sprite_tile_y),
	.loc 16 455 84 is_stmt 0 discriminator 1
	mov	eax, 7	# tmp162,
	sub	eax, DWORD PTR [rbp-24]	# iftmp.94_65, tile_x
	jmp	.L293	#
.L292:
# GPU.cpp:455:                             Sprite_pixel p = {tileset[sprite_tile_index_].get_color(((spr.attributes >> 5) & 1) ? tile_x : (7 - tile_x), sprite_tile_y),
	.loc 16 455 84 discriminator 2
	mov	eax, DWORD PTR [rbp-24]	# iftmp.94_65, tile_x
.L293:
# GPU.cpp:455:                             Sprite_pixel p = {tileset[sprite_tile_index_].get_color(((spr.attributes >> 5) & 1) ? tile_x : (7 - tile_x), sprite_tile_y),
	.loc 16 455 84 discriminator 4
	mov	esi, eax	#, iftmp.94_65
	mov	rdi, rcx	#, _36
	call	_ZN4Tile9get_colorEii	#
# GPU.cpp:457:                                               static_cast<uint8_t>((spr.attributes >> 7) & 1)};
	.loc 16 457 94 is_stmt 1 discriminator 4
	mov	BYTE PTR [rbp-31], al	# p.color, _44
# GPU.cpp:438:             {Pixel_fetcher_state::push, [this]() {
	.loc 16 438 48 discriminator 4
	mov	rax, QWORD PTR [rbp-40]	# tmp163, __closure
	mov	rax, QWORD PTR [rax]	# _45, __closure_72(D)->__this
# GPU.cpp:456:                                               static_cast<uint8_t>((spr.attributes >> 4) & 1),
	.loc 16 456 73 discriminator 4
	movzx	eax, BYTE PTR [rax+53]	# _46, _45->spr.attributes
# GPU.cpp:456:                                               static_cast<uint8_t>((spr.attributes >> 4) & 1),
	.loc 16 456 84 discriminator 4
	shr	al, 4	# _47,
# GPU.cpp:456:                                               static_cast<uint8_t>((spr.attributes >> 4) & 1),
	.loc 16 456 90 discriminator 4
	and	eax, 1	# _48,
# GPU.cpp:457:                                               static_cast<uint8_t>((spr.attributes >> 7) & 1)};
	.loc 16 457 94 discriminator 4
	mov	BYTE PTR [rbp-30], al	# p.palette, _48
# GPU.cpp:438:             {Pixel_fetcher_state::push, [this]() {
	.loc 16 438 48 discriminator 4
	mov	rax, QWORD PTR [rbp-40]	# tmp164, __closure
	mov	rax, QWORD PTR [rax]	# _49, __closure_72(D)->__this
# GPU.cpp:457:                                               static_cast<uint8_t>((spr.attributes >> 7) & 1)};
	.loc 16 457 73 discriminator 4
	movzx	eax, BYTE PTR [rax+53]	# _50, _49->spr.attributes
# GPU.cpp:457:                                               static_cast<uint8_t>((spr.attributes >> 7) & 1)};
	.loc 16 457 84 discriminator 4
	shr	al, 7	# _51,
# GPU.cpp:457:                                               static_cast<uint8_t>((spr.attributes >> 7) & 1)};
	.loc 16 457 94 discriminator 4
	mov	BYTE PTR [rbp-29], al	# p.priority, _51
# GPU.cpp:438:             {Pixel_fetcher_state::push, [this]() {
	.loc 16 438 48 discriminator 4
	mov	rax, QWORD PTR [rbp-40]	# tmp165, __closure
	mov	rax, QWORD PTR [rax]	# _52, __closure_72(D)->__this
# GPU.cpp:458:                             if ( g.spr_fifo.size() <= tile_x ) {
	.loc 16 458 34 discriminator 4
	mov	rax, QWORD PTR [rax+40]	# _53, _52->g
# GPU.cpp:458:                             if ( g.spr_fifo.size() <= tile_x ) {
	.loc 16 458 49 discriminator 4
	add	rax, 92352	# _54,
	mov	rdi, rax	#, _54
	call	_ZNKSt5dequeIN2gb8graphics3GPU12Sprite_pixelESaIS3_EE4sizeEv	#
# GPU.cpp:458:                             if ( g.spr_fifo.size() <= tile_x ) {
	.loc 16 458 55 discriminator 4
	mov	edx, DWORD PTR [rbp-24]	# tmp166, tile_x
	movsx	rdx, edx	# _56, tmp166
# GPU.cpp:458:                             if ( g.spr_fifo.size() <= tile_x ) {
	.loc 16 458 52 discriminator 4
	cmp	rax, rdx	# _55, _56
	setbe	al	#, retval.95_85
# GPU.cpp:458:                             if ( g.spr_fifo.size() <= tile_x ) {
	.loc 16 458 29 discriminator 4
	test	al, al	# retval.95_85
	je	.L294	#,
# GPU.cpp:438:             {Pixel_fetcher_state::push, [this]() {
	.loc 16 438 48
	mov	rax, QWORD PTR [rbp-40]	# tmp167, __closure
	mov	rax, QWORD PTR [rax]	# _57, __closure_72(D)->__this
# GPU.cpp:459:                                 g.spr_fifo.push_back(p);
	.loc 16 459 33
	mov	rax, QWORD PTR [rax+40]	# _58, _57->g
# GPU.cpp:459:                                 g.spr_fifo.push_back(p);
	.loc 16 459 53
	lea	rdx, [rax+92352]	# _59,
	lea	rax, [rbp-31]	# tmp168,
	mov	rsi, rax	#, tmp168
	mov	rdi, rdx	#, _59
	call	_ZNSt5dequeIN2gb8graphics3GPU12Sprite_pixelESaIS3_EE9push_backERKS3_	#
.L294:
.LBE89:
# GPU.cpp:454:                         for (int tile_x = 0; tile_x <= 7; tile_x++) {
	.loc 16 454 25 discriminator 2
	add	DWORD PTR [rbp-24], 1	# tile_x,
.L291:
# GPU.cpp:454:                         for (int tile_x = 0; tile_x <= 7; tile_x++) {
	.loc 16 454 53 discriminator 1
	cmp	DWORD PTR [rbp-24], 7	# tile_x,
	jle	.L295	#,
.LBE88:
# GPU.cpp:438:             {Pixel_fetcher_state::push, [this]() {
	.loc 16 438 48
	mov	rax, QWORD PTR [rbp-40]	# tmp169, __closure
	mov	rax, QWORD PTR [rax]	# _60, __closure_72(D)->__this
# GPU.cpp:462:                         rendering_sprites = false;
	.loc 16 462 43
	mov	BYTE PTR [rax+48], 0	# _60->rendering_sprites,
.L286:
.LBE87:
.LBE86:
.LBE85:
.LBE81:
# GPU.cpp:438:             {Pixel_fetcher_state::push, [this]() {
	.loc 16 438 48
	mov	rax, QWORD PTR [rbp-40]	# tmp170, __closure
	mov	rax, QWORD PTR [rax]	# _61, __closure_72(D)->__this
# GPU.cpp:465:                 fetcher_state_ = Pixel_fetcher_state::get_tile;
	.loc 16 465 32
	mov	DWORD PTR [rax], 0	# _61->fetcher_state_,
.LBE80:
# GPU.cpp:466:             }}
	.loc 16 466 13
	nop	
	mov	rbx, QWORD PTR [rbp-8]	#,
	leave	
	.cfi_def_cfa 7, 8
	ret	
	.cfi_endproc
.LFE6157:
	.size	_ZZN2gb8graphics3GPU13Pixel_fetcher4stepEvENKUlvE3_clEv, .-_ZZN2gb8graphics3GPU13Pixel_fetcher4stepEvENKUlvE3_clEv
	.section	.text._ZNSt8functionIFvvEED2Ev,"axG",@progbits,_ZNSt8functionIFvvEED5Ev,comdat
	.align 2
	.weak	_ZNSt8functionIFvvEED2Ev
	.type	_ZNSt8functionIFvvEED2Ev, @function
_ZNSt8functionIFvvEED2Ev:
.LFB6186:
	.loc 13 328 11
	.cfi_startproc
	push	rbp	#
	.cfi_def_cfa_offset 16
	.cfi_offset 6, -16
	mov	rbp, rsp	#,
	.cfi_def_cfa_register 6
	sub	rsp, 16	#,
	mov	QWORD PTR [rbp-8], rdi	# this, this
.LBB90:
# /usr/include/c++/11/bits/std_function.h:328:     class function<_Res(_ArgTypes...)>
	.loc 13 328 11
	mov	rax, QWORD PTR [rbp-8]	# _1, this
	mov	rdi, rax	#, _1
	call	_ZNSt14_Function_baseD2Ev	#
.LBE90:
	nop	
	leave	
	.cfi_def_cfa 7, 8
	ret	
	.cfi_endproc
.LFE6186:
	.size	_ZNSt8functionIFvvEED2Ev, .-_ZNSt8functionIFvvEED2Ev
	.weak	_ZNSt8functionIFvvEED1Ev
	.set	_ZNSt8functionIFvvEED1Ev,_ZNSt8functionIFvvEED2Ev
	.section	.text._ZNSt4pairIKN2gb8graphics3GPU13Pixel_fetcher19Pixel_fetcher_stateESt8functionIFvvEEED2Ev,"axG",@progbits,_ZNSt4pairIKN2gb8graphics3GPU13Pixel_fetcher19Pixel_fetcher_stateESt8functionIFvvEEED5Ev,comdat
	.align 2
	.weak	_ZNSt4pairIKN2gb8graphics3GPU13Pixel_fetcher19Pixel_fetcher_stateESt8functionIFvvEEED2Ev
	.type	_ZNSt4pairIKN2gb8graphics3GPU13Pixel_fetcher19Pixel_fetcher_stateESt8functionIFvvEEED2Ev, @function
_ZNSt4pairIKN2gb8graphics3GPU13Pixel_fetcher19Pixel_fetcher_stateESt8functionIFvvEEED2Ev:
.LFB6188:
	.file 17 "/usr/include/c++/11/bits/stl_pair.h"
	.loc 17 211 12
	.cfi_startproc
	push	rbp	#
	.cfi_def_cfa_offset 16
	.cfi_offset 6, -16
	mov	rbp, rsp	#,
	.cfi_def_cfa_register 6
	sub	rsp, 16	#,
	mov	QWORD PTR [rbp-8], rdi	# this, this
.LBB91:
# /usr/include/c++/11/bits/stl_pair.h:211:     struct pair
	.loc 17 211 12
	mov	rax, QWORD PTR [rbp-8]	# tmp83, this
	add	rax, 8	# _1,
	mov	rdi, rax	#, _1
	call	_ZNSt8functionIFvvEED1Ev	#
.LBE91:
	nop	
	leave	
	.cfi_def_cfa 7, 8
	ret	
	.cfi_endproc
.LFE6188:
	.size	_ZNSt4pairIKN2gb8graphics3GPU13Pixel_fetcher19Pixel_fetcher_stateESt8functionIFvvEEED2Ev, .-_ZNSt4pairIKN2gb8graphics3GPU13Pixel_fetcher19Pixel_fetcher_stateESt8functionIFvvEEED2Ev
	.weak	_ZNSt4pairIKN2gb8graphics3GPU13Pixel_fetcher19Pixel_fetcher_stateESt8functionIFvvEEED1Ev
	.set	_ZNSt4pairIKN2gb8graphics3GPU13Pixel_fetcher19Pixel_fetcher_stateESt8functionIFvvEEED1Ev,_ZNSt4pairIKN2gb8graphics3GPU13Pixel_fetcher19Pixel_fetcher_stateESt8functionIFvvEEED2Ev
	.text
	.align 2
	.type	_ZNSt4pairIKN2gb8graphics3GPU13Pixel_fetcher19Pixel_fetcher_stateESt8functionIFvvEEEC2IS4_ZNS3_4stepEvEUlvE_Lb1EEEOT_OT0_, @function
_ZNSt4pairIKN2gb8graphics3GPU13Pixel_fetcher19Pixel_fetcher_stateESt8functionIFvvEEEC2IS4_ZNS3_4stepEvEUlvE_Lb1EEEOT_OT0_:
.LFB6191:
	.loc 17 352 12
	.cfi_startproc
	push	rbp	#
	.cfi_def_cfa_offset 16
	.cfi_offset 6, -16
	mov	rbp, rsp	#,
	.cfi_def_cfa_register 6
	push	rbx	#
	sub	rsp, 40	#,
	.cfi_offset 3, -24
	mov	QWORD PTR [rbp-24], rdi	# this, this
	mov	QWORD PTR [rbp-32], rsi	# __x, __x
	mov	QWORD PTR [rbp-40], rdx	# __y, __y
.LBB92:
# /usr/include/c++/11/bits/stl_pair.h:353: 	: first(std::forward<_U1>(__x)), second(std::forward<_U2>(__y)) { }
	.loc 17 353 27
	mov	rax, QWORD PTR [rbp-32]	# tmp87, __x
	mov	rdi, rax	#, tmp87
	call	_ZSt7forwardIN2gb8graphics3GPU13Pixel_fetcher19Pixel_fetcher_stateEEOT_RNSt16remove_referenceIS5_E4typeE	#
# /usr/include/c++/11/bits/stl_pair.h:353: 	: first(std::forward<_U1>(__x)), second(std::forward<_U2>(__y)) { }
	.loc 17 353 4
	mov	edx, DWORD PTR [rax]	# _2, *_1
	mov	rax, QWORD PTR [rbp-24]	# tmp88, this
	mov	DWORD PTR [rax], edx	# this_7(D)->first, _2
# /usr/include/c++/11/bits/stl_pair.h:353: 	: first(std::forward<_U1>(__x)), second(std::forward<_U2>(__y)) { }
	.loc 17 353 35
	mov	rax, QWORD PTR [rbp-24]	# tmp89, this
	lea	rbx, [rax+8]	# _3,
# /usr/include/c++/11/bits/stl_pair.h:353: 	: first(std::forward<_U1>(__x)), second(std::forward<_U2>(__y)) { }
	.loc 17 353 59
	mov	rax, QWORD PTR [rbp-40]	# tmp90, __y
	mov	rdi, rax	#, tmp90
	call	_ZSt7forwardIZN2gb8graphics3GPU13Pixel_fetcher4stepEvEUlvE_EOT_RNSt16remove_referenceIS5_E4typeE	#
# /usr/include/c++/11/bits/stl_pair.h:353: 	: first(std::forward<_U1>(__x)), second(std::forward<_U2>(__y)) { }
	.loc 17 353 35
	mov	rsi, QWORD PTR [rax]	#, *_4
	mov	rdi, rbx	#, _3
	call	_ZNSt8functionIFvvEEC1IZN2gb8graphics3GPU13Pixel_fetcher4stepEvEUlvE_vvEET_	#
.LBE92:
# /usr/include/c++/11/bits/stl_pair.h:353: 	: first(std::forward<_U1>(__x)), second(std::forward<_U2>(__y)) { }
	.loc 17 353 68
	nop	
	mov	rbx, QWORD PTR [rbp-8]	#,
	leave	
	.cfi_def_cfa 7, 8
	ret	
	.cfi_endproc
.LFE6191:
	.size	_ZNSt4pairIKN2gb8graphics3GPU13Pixel_fetcher19Pixel_fetcher_stateESt8functionIFvvEEEC2IS4_ZNS3_4stepEvEUlvE_Lb1EEEOT_OT0_, .-_ZNSt4pairIKN2gb8graphics3GPU13Pixel_fetcher19Pixel_fetcher_stateESt8functionIFvvEEEC2IS4_ZNS3_4stepEvEUlvE_Lb1EEEOT_OT0_
	.set	_ZNSt4pairIKN2gb8graphics3GPU13Pixel_fetcher19Pixel_fetcher_stateESt8functionIFvvEEEC1IS4_ZNS3_4stepEvEUlvE_Lb1EEEOT_OT0_,_ZNSt4pairIKN2gb8graphics3GPU13Pixel_fetcher19Pixel_fetcher_stateESt8functionIFvvEEEC2IS4_ZNS3_4stepEvEUlvE_Lb1EEEOT_OT0_
	.align 2
	.type	_ZNSt4pairIKN2gb8graphics3GPU13Pixel_fetcher19Pixel_fetcher_stateESt8functionIFvvEEEC2IS4_ZNS3_4stepEvEUlvE0_Lb1EEEOT_OT0_, @function
_ZNSt4pairIKN2gb8graphics3GPU13Pixel_fetcher19Pixel_fetcher_stateESt8functionIFvvEEEC2IS4_ZNS3_4stepEvEUlvE0_Lb1EEEOT_OT0_:
.LFB6194:
	.loc 17 352 12
	.cfi_startproc
	push	rbp	#
	.cfi_def_cfa_offset 16
	.cfi_offset 6, -16
	mov	rbp, rsp	#,
	.cfi_def_cfa_register 6
	push	rbx	#
	sub	rsp, 40	#,
	.cfi_offset 3, -24
	mov	QWORD PTR [rbp-24], rdi	# this, this
	mov	QWORD PTR [rbp-32], rsi	# __x, __x
	mov	QWORD PTR [rbp-40], rdx	# __y, __y
.LBB93:
# /usr/include/c++/11/bits/stl_pair.h:353: 	: first(std::forward<_U1>(__x)), second(std::forward<_U2>(__y)) { }
	.loc 17 353 27
	mov	rax, QWORD PTR [rbp-32]	# tmp87, __x
	mov	rdi, rax	#, tmp87
	call	_ZSt7forwardIN2gb8graphics3GPU13Pixel_fetcher19Pixel_fetcher_stateEEOT_RNSt16remove_referenceIS5_E4typeE	#
# /usr/include/c++/11/bits/stl_pair.h:353: 	: first(std::forward<_U1>(__x)), second(std::forward<_U2>(__y)) { }
	.loc 17 353 4
	mov	edx, DWORD PTR [rax]	# _2, *_1
	mov	rax, QWORD PTR [rbp-24]	# tmp88, this
	mov	DWORD PTR [rax], edx	# this_7(D)->first, _2
# /usr/include/c++/11/bits/stl_pair.h:353: 	: first(std::forward<_U1>(__x)), second(std::forward<_U2>(__y)) { }
	.loc 17 353 35
	mov	rax, QWORD PTR [rbp-24]	# tmp89, this
	lea	rbx, [rax+8]	# _3,
# /usr/include/c++/11/bits/stl_pair.h:353: 	: first(std::forward<_U1>(__x)), second(std::forward<_U2>(__y)) { }
	.loc 17 353 59
	mov	rax, QWORD PTR [rbp-40]	# tmp90, __y
	mov	rdi, rax	#, tmp90
	call	_ZSt7forwardIZN2gb8graphics3GPU13Pixel_fetcher4stepEvEUlvE0_EOT_RNSt16remove_referenceIS5_E4typeE	#
# /usr/include/c++/11/bits/stl_pair.h:353: 	: first(std::forward<_U1>(__x)), second(std::forward<_U2>(__y)) { }
	.loc 17 353 35
	mov	rsi, QWORD PTR [rax]	#, *_4
	mov	rdi, rbx	#, _3
	call	_ZNSt8functionIFvvEEC1IZN2gb8graphics3GPU13Pixel_fetcher4stepEvEUlvE0_vvEET_	#
.LBE93:
# /usr/include/c++/11/bits/stl_pair.h:353: 	: first(std::forward<_U1>(__x)), second(std::forward<_U2>(__y)) { }
	.loc 17 353 68
	nop	
	mov	rbx, QWORD PTR [rbp-8]	#,
	leave	
	.cfi_def_cfa 7, 8
	ret	
	.cfi_endproc
.LFE6194:
	.size	_ZNSt4pairIKN2gb8graphics3GPU13Pixel_fetcher19Pixel_fetcher_stateESt8functionIFvvEEEC2IS4_ZNS3_4stepEvEUlvE0_Lb1EEEOT_OT0_, .-_ZNSt4pairIKN2gb8graphics3GPU13Pixel_fetcher19Pixel_fetcher_stateESt8functionIFvvEEEC2IS4_ZNS3_4stepEvEUlvE0_Lb1EEEOT_OT0_
	.set	_ZNSt4pairIKN2gb8graphics3GPU13Pixel_fetcher19Pixel_fetcher_stateESt8functionIFvvEEEC1IS4_ZNS3_4stepEvEUlvE0_Lb1EEEOT_OT0_,_ZNSt4pairIKN2gb8graphics3GPU13Pixel_fetcher19Pixel_fetcher_stateESt8functionIFvvEEEC2IS4_ZNS3_4stepEvEUlvE0_Lb1EEEOT_OT0_
	.align 2
	.type	_ZNSt4pairIKN2gb8graphics3GPU13Pixel_fetcher19Pixel_fetcher_stateESt8functionIFvvEEEC2IS4_ZNS3_4stepEvEUlvE1_Lb1EEEOT_OT0_, @function
_ZNSt4pairIKN2gb8graphics3GPU13Pixel_fetcher19Pixel_fetcher_stateESt8functionIFvvEEEC2IS4_ZNS3_4stepEvEUlvE1_Lb1EEEOT_OT0_:
.LFB6197:
	.loc 17 352 12
	.cfi_startproc
	push	rbp	#
	.cfi_def_cfa_offset 16
	.cfi_offset 6, -16
	mov	rbp, rsp	#,
	.cfi_def_cfa_register 6
	push	rbx	#
	sub	rsp, 40	#,
	.cfi_offset 3, -24
	mov	QWORD PTR [rbp-24], rdi	# this, this
	mov	QWORD PTR [rbp-32], rsi	# __x, __x
	mov	QWORD PTR [rbp-40], rdx	# __y, __y
.LBB94:
# /usr/include/c++/11/bits/stl_pair.h:353: 	: first(std::forward<_U1>(__x)), second(std::forward<_U2>(__y)) { }
	.loc 17 353 27
	mov	rax, QWORD PTR [rbp-32]	# tmp87, __x
	mov	rdi, rax	#, tmp87
	call	_ZSt7forwardIN2gb8graphics3GPU13Pixel_fetcher19Pixel_fetcher_stateEEOT_RNSt16remove_referenceIS5_E4typeE	#
# /usr/include/c++/11/bits/stl_pair.h:353: 	: first(std::forward<_U1>(__x)), second(std::forward<_U2>(__y)) { }
	.loc 17 353 4
	mov	edx, DWORD PTR [rax]	# _2, *_1
	mov	rax, QWORD PTR [rbp-24]	# tmp88, this
	mov	DWORD PTR [rax], edx	# this_7(D)->first, _2
# /usr/include/c++/11/bits/stl_pair.h:353: 	: first(std::forward<_U1>(__x)), second(std::forward<_U2>(__y)) { }
	.loc 17 353 35
	mov	rax, QWORD PTR [rbp-24]	# tmp89, this
	lea	rbx, [rax+8]	# _3,
# /usr/include/c++/11/bits/stl_pair.h:353: 	: first(std::forward<_U1>(__x)), second(std::forward<_U2>(__y)) { }
	.loc 17 353 59
	mov	rax, QWORD PTR [rbp-40]	# tmp90, __y
	mov	rdi, rax	#, tmp90
	call	_ZSt7forwardIZN2gb8graphics3GPU13Pixel_fetcher4stepEvEUlvE1_EOT_RNSt16remove_referenceIS5_E4typeE	#
# /usr/include/c++/11/bits/stl_pair.h:353: 	: first(std::forward<_U1>(__x)), second(std::forward<_U2>(__y)) { }
	.loc 17 353 35
	mov	rsi, QWORD PTR [rax]	#, *_4
	mov	rdi, rbx	#, _3
	call	_ZNSt8functionIFvvEEC1IZN2gb8graphics3GPU13Pixel_fetcher4stepEvEUlvE1_vvEET_	#
.LBE94:
# /usr/include/c++/11/bits/stl_pair.h:353: 	: first(std::forward<_U1>(__x)), second(std::forward<_U2>(__y)) { }
	.loc 17 353 68
	nop	
	mov	rbx, QWORD PTR [rbp-8]	#,
	leave	
	.cfi_def_cfa 7, 8
	ret	
	.cfi_endproc
.LFE6197:
	.size	_ZNSt4pairIKN2gb8graphics3GPU13Pixel_fetcher19Pixel_fetcher_stateESt8functionIFvvEEEC2IS4_ZNS3_4stepEvEUlvE1_Lb1EEEOT_OT0_, .-_ZNSt4pairIKN2gb8graphics3GPU13Pixel_fetcher19Pixel_fetcher_stateESt8functionIFvvEEEC2IS4_ZNS3_4stepEvEUlvE1_Lb1EEEOT_OT0_
	.set	_ZNSt4pairIKN2gb8graphics3GPU13Pixel_fetcher19Pixel_fetcher_stateESt8functionIFvvEEEC1IS4_ZNS3_4stepEvEUlvE1_Lb1EEEOT_OT0_,_ZNSt4pairIKN2gb8graphics3GPU13Pixel_fetcher19Pixel_fetcher_stateESt8functionIFvvEEEC2IS4_ZNS3_4stepEvEUlvE1_Lb1EEEOT_OT0_
	.align 2
	.type	_ZNSt4pairIKN2gb8graphics3GPU13Pixel_fetcher19Pixel_fetcher_stateESt8functionIFvvEEEC2IS4_ZNS3_4stepEvEUlvE2_Lb1EEEOT_OT0_, @function
_ZNSt4pairIKN2gb8graphics3GPU13Pixel_fetcher19Pixel_fetcher_stateESt8functionIFvvEEEC2IS4_ZNS3_4stepEvEUlvE2_Lb1EEEOT_OT0_:
.LFB6200:
	.loc 17 352 12
	.cfi_startproc
	push	rbp	#
	.cfi_def_cfa_offset 16
	.cfi_offset 6, -16
	mov	rbp, rsp	#,
	.cfi_def_cfa_register 6
	push	rbx	#
	sub	rsp, 40	#,
	.cfi_offset 3, -24
	mov	QWORD PTR [rbp-24], rdi	# this, this
	mov	QWORD PTR [rbp-32], rsi	# __x, __x
	mov	QWORD PTR [rbp-40], rdx	# __y, __y
.LBB95:
# /usr/include/c++/11/bits/stl_pair.h:353: 	: first(std::forward<_U1>(__x)), second(std::forward<_U2>(__y)) { }
	.loc 17 353 27
	mov	rax, QWORD PTR [rbp-32]	# tmp87, __x
	mov	rdi, rax	#, tmp87
	call	_ZSt7forwardIN2gb8graphics3GPU13Pixel_fetcher19Pixel_fetcher_stateEEOT_RNSt16remove_referenceIS5_E4typeE	#
# /usr/include/c++/11/bits/stl_pair.h:353: 	: first(std::forward<_U1>(__x)), second(std::forward<_U2>(__y)) { }
	.loc 17 353 4
	mov	edx, DWORD PTR [rax]	# _2, *_1
	mov	rax, QWORD PTR [rbp-24]	# tmp88, this
	mov	DWORD PTR [rax], edx	# this_7(D)->first, _2
# /usr/include/c++/11/bits/stl_pair.h:353: 	: first(std::forward<_U1>(__x)), second(std::forward<_U2>(__y)) { }
	.loc 17 353 35
	mov	rax, QWORD PTR [rbp-24]	# tmp89, this
	lea	rbx, [rax+8]	# _3,
# /usr/include/c++/11/bits/stl_pair.h:353: 	: first(std::forward<_U1>(__x)), second(std::forward<_U2>(__y)) { }
	.loc 17 353 59
	mov	rax, QWORD PTR [rbp-40]	# tmp90, __y
	mov	rdi, rax	#, tmp90
	call	_ZSt7forwardIZN2gb8graphics3GPU13Pixel_fetcher4stepEvEUlvE2_EOT_RNSt16remove_referenceIS5_E4typeE	#
# /usr/include/c++/11/bits/stl_pair.h:353: 	: first(std::forward<_U1>(__x)), second(std::forward<_U2>(__y)) { }
	.loc 17 353 35
	mov	rsi, QWORD PTR [rax]	#, *_4
	mov	rdi, rbx	#, _3
	call	_ZNSt8functionIFvvEEC1IZN2gb8graphics3GPU13Pixel_fetcher4stepEvEUlvE2_vvEET_	#
.LBE95:
# /usr/include/c++/11/bits/stl_pair.h:353: 	: first(std::forward<_U1>(__x)), second(std::forward<_U2>(__y)) { }
	.loc 17 353 68
	nop	
	mov	rbx, QWORD PTR [rbp-8]	#,
	leave	
	.cfi_def_cfa 7, 8
	ret	
	.cfi_endproc
.LFE6200:
	.size	_ZNSt4pairIKN2gb8graphics3GPU13Pixel_fetcher19Pixel_fetcher_stateESt8functionIFvvEEEC2IS4_ZNS3_4stepEvEUlvE2_Lb1EEEOT_OT0_, .-_ZNSt4pairIKN2gb8graphics3GPU13Pixel_fetcher19Pixel_fetcher_stateESt8functionIFvvEEEC2IS4_ZNS3_4stepEvEUlvE2_Lb1EEEOT_OT0_
	.set	_ZNSt4pairIKN2gb8graphics3GPU13Pixel_fetcher19Pixel_fetcher_stateESt8functionIFvvEEEC1IS4_ZNS3_4stepEvEUlvE2_Lb1EEEOT_OT0_,_ZNSt4pairIKN2gb8graphics3GPU13Pixel_fetcher19Pixel_fetcher_stateESt8functionIFvvEEEC2IS4_ZNS3_4stepEvEUlvE2_Lb1EEEOT_OT0_
	.align 2
	.type	_ZNSt4pairIKN2gb8graphics3GPU13Pixel_fetcher19Pixel_fetcher_stateESt8functionIFvvEEEC2IS4_ZNS3_4stepEvEUlvE3_Lb1EEEOT_OT0_, @function
_ZNSt4pairIKN2gb8graphics3GPU13Pixel_fetcher19Pixel_fetcher_stateESt8functionIFvvEEEC2IS4_ZNS3_4stepEvEUlvE3_Lb1EEEOT_OT0_:
.LFB6203:
	.loc 17 352 12
	.cfi_startproc
	push	rbp	#
	.cfi_def_cfa_offset 16
	.cfi_offset 6, -16
	mov	rbp, rsp	#,
	.cfi_def_cfa_register 6
	push	rbx	#
	sub	rsp, 40	#,
	.cfi_offset 3, -24
	mov	QWORD PTR [rbp-24], rdi	# this, this
	mov	QWORD PTR [rbp-32], rsi	# __x, __x
	mov	QWORD PTR [rbp-40], rdx	# __y, __y
.LBB96:
# /usr/include/c++/11/bits/stl_pair.h:353: 	: first(std::forward<_U1>(__x)), second(std::forward<_U2>(__y)) { }
	.loc 17 353 27
	mov	rax, QWORD PTR [rbp-32]	# tmp87, __x
	mov	rdi, rax	#, tmp87
	call	_ZSt7forwardIN2gb8graphics3GPU13Pixel_fetcher19Pixel_fetcher_stateEEOT_RNSt16remove_referenceIS5_E4typeE	#
# /usr/include/c++/11/bits/stl_pair.h:353: 	: first(std::forward<_U1>(__x)), second(std::forward<_U2>(__y)) { }
	.loc 17 353 4
	mov	edx, DWORD PTR [rax]	# _2, *_1
	mov	rax, QWORD PTR [rbp-24]	# tmp88, this
	mov	DWORD PTR [rax], edx	# this_7(D)->first, _2
# /usr/include/c++/11/bits/stl_pair.h:353: 	: first(std::forward<_U1>(__x)), second(std::forward<_U2>(__y)) { }
	.loc 17 353 35
	mov	rax, QWORD PTR [rbp-24]	# tmp89, this
	lea	rbx, [rax+8]	# _3,
# /usr/include/c++/11/bits/stl_pair.h:353: 	: first(std::forward<_U1>(__x)), second(std::forward<_U2>(__y)) { }
	.loc 17 353 59
	mov	rax, QWORD PTR [rbp-40]	# tmp90, __y
	mov	rdi, rax	#, tmp90
	call	_ZSt7forwardIZN2gb8graphics3GPU13Pixel_fetcher4stepEvEUlvE3_EOT_RNSt16remove_referenceIS5_E4typeE	#
# /usr/include/c++/11/bits/stl_pair.h:353: 	: first(std::forward<_U1>(__x)), second(std::forward<_U2>(__y)) { }
	.loc 17 353 35
	mov	rsi, QWORD PTR [rax]	#, *_4
	mov	rdi, rbx	#, _3
	call	_ZNSt8functionIFvvEEC1IZN2gb8graphics3GPU13Pixel_fetcher4stepEvEUlvE3_vvEET_	#
.LBE96:
# /usr/include/c++/11/bits/stl_pair.h:353: 	: first(std::forward<_U1>(__x)), second(std::forward<_U2>(__y)) { }
	.loc 17 353 68
	nop	
	mov	rbx, QWORD PTR [rbp-8]	#,
	leave	
	.cfi_def_cfa 7, 8
	ret	
	.cfi_endproc
.LFE6203:
	.size	_ZNSt4pairIKN2gb8graphics3GPU13Pixel_fetcher19Pixel_fetcher_stateESt8functionIFvvEEEC2IS4_ZNS3_4stepEvEUlvE3_Lb1EEEOT_OT0_, .-_ZNSt4pairIKN2gb8graphics3GPU13Pixel_fetcher19Pixel_fetcher_stateESt8functionIFvvEEEC2IS4_ZNS3_4stepEvEUlvE3_Lb1EEEOT_OT0_
	.set	_ZNSt4pairIKN2gb8graphics3GPU13Pixel_fetcher19Pixel_fetcher_stateESt8functionIFvvEEEC1IS4_ZNS3_4stepEvEUlvE3_Lb1EEEOT_OT0_,_ZNSt4pairIKN2gb8graphics3GPU13Pixel_fetcher19Pixel_fetcher_stateESt8functionIFvvEEEC2IS4_ZNS3_4stepEvEUlvE3_Lb1EEEOT_OT0_
	.section	.text._ZNSt3mapIN2gb8graphics3GPU13Pixel_fetcher19Pixel_fetcher_stateESt8functionIFvvEESt4lessIS4_ESaISt4pairIKS4_S7_EEED2Ev,"axG",@progbits,_ZNSt3mapIN2gb8graphics3GPU13Pixel_fetcher19Pixel_fetcher_stateESt8functionIFvvEESt4lessIS4_ESaISt4pairIKS4_S7_EEED5Ev,comdat
	.align 2
	.weak	_ZNSt3mapIN2gb8graphics3GPU13Pixel_fetcher19Pixel_fetcher_stateESt8functionIFvvEESt4lessIS4_ESaISt4pairIKS4_S7_EEED2Ev
	.type	_ZNSt3mapIN2gb8graphics3GPU13Pixel_fetcher19Pixel_fetcher_stateESt8functionIFvvEESt4lessIS4_ESaISt4pairIKS4_S7_EEED2Ev, @function
_ZNSt3mapIN2gb8graphics3GPU13Pixel_fetcher19Pixel_fetcher_stateESt8functionIFvvEESt4lessIS4_ESaISt4pairIKS4_S7_EEED2Ev:
.LFB6206:
	.file 18 "/usr/include/c++/11/bits/stl_map.h"
	.loc 18 302 7
	.cfi_startproc
	push	rbp	#
	.cfi_def_cfa_offset 16
	.cfi_offset 6, -16
	mov	rbp, rsp	#,
	.cfi_def_cfa_register 6
	sub	rsp, 16	#,
	mov	QWORD PTR [rbp-8], rdi	# this, this
.LBB97:
# /usr/include/c++/11/bits/stl_map.h:302:       ~map() = default;
	.loc 18 302 7
	mov	rax, QWORD PTR [rbp-8]	# _1, this
	mov	rdi, rax	#, _1
	call	_ZNSt8_Rb_treeIN2gb8graphics3GPU13Pixel_fetcher19Pixel_fetcher_stateESt4pairIKS4_St8functionIFvvEEESt10_Select1stISA_ESt4lessIS4_ESaISA_EED1Ev	#
.LBE97:
	nop	
	leave	
	.cfi_def_cfa 7, 8
	ret	
	.cfi_endproc
.LFE6206:
	.size	_ZNSt3mapIN2gb8graphics3GPU13Pixel_fetcher19Pixel_fetcher_stateESt8functionIFvvEESt4lessIS4_ESaISt4pairIKS4_S7_EEED2Ev, .-_ZNSt3mapIN2gb8graphics3GPU13Pixel_fetcher19Pixel_fetcher_stateESt8functionIFvvEESt4lessIS4_ESaISt4pairIKS4_S7_EEED2Ev
	.weak	_ZNSt3mapIN2gb8graphics3GPU13Pixel_fetcher19Pixel_fetcher_stateESt8functionIFvvEESt4lessIS4_ESaISt4pairIKS4_S7_EEED1Ev
	.set	_ZNSt3mapIN2gb8graphics3GPU13Pixel_fetcher19Pixel_fetcher_stateESt8functionIFvvEESt4lessIS4_ESaISt4pairIKS4_S7_EEED1Ev,_ZNSt3mapIN2gb8graphics3GPU13Pixel_fetcher19Pixel_fetcher_stateESt8functionIFvvEESt4lessIS4_ESaISt4pairIKS4_S7_EEED2Ev
	.text
	.align 2
	.globl	_ZN2gb8graphics3GPU13Pixel_fetcher4stepEv
	.type	_ZN2gb8graphics3GPU13Pixel_fetcher4stepEv, @function
_ZN2gb8graphics3GPU13Pixel_fetcher4stepEv:
.LFB6152:
	.loc 16 410 47
	.cfi_startproc
	.cfi_personality 0x3,__gxx_personality_v0
	.cfi_lsda 0x3,.LLSDA6152
	push	rbp	#
	.cfi_def_cfa_offset 16
	.cfi_offset 6, -16
	mov	rbp, rsp	#,
	.cfi_def_cfa_register 6
	push	r13	#
	push	r12	#
	push	rbx	#
	sub	rsp, 360	#,
	.cfi_offset 13, -24
	.cfi_offset 12, -32
	.cfi_offset 3, -40
	mov	QWORD PTR [rbp-376], rdi	# this, this
# GPU.cpp:412:             {Pixel_fetcher_state::get_tile, [this]() {
	.loc 16 412 35
	mov	DWORD PTR [rbp-116], 0	# D.156966,
# GPU.cpp:467:     };
	.loc 16 467 5
	mov	rax, QWORD PTR [rbp-376]	# tmp89, this
	mov	QWORD PTR [rbp-112], rax	# D.153958.__this, tmp89
	lea	rdx, [rbp-112]	# tmp90,
	lea	rcx, [rbp-116]	# tmp91,
	lea	rax, [rbp-320]	# tmp92,
	mov	rsi, rcx	#, tmp91
	mov	rdi, rax	#, tmp92
.LEHB13:
	call	_ZNSt4pairIKN2gb8graphics3GPU13Pixel_fetcher19Pixel_fetcher_stateESt8functionIFvvEEEC1IS4_ZNS3_4stepEvEUlvE_Lb1EEEOT_OT0_	#
# GPU.cpp:422:             {Pixel_fetcher_state::get_tile_data_low, [this]() {
	.loc 16 422 35
	mov	DWORD PTR [rbp-100], 1	# D.156991,
# GPU.cpp:467:     };
	.loc 16 467 5
	mov	rax, QWORD PTR [rbp-376]	# tmp93, this
	mov	QWORD PTR [rbp-96], rax	# D.153977.__this, tmp93
	lea	rdx, [rbp-96]	# tmp94,
	lea	rax, [rbp-100]	# tmp95,
	lea	rcx, [rbp-320]	# tmp96,
	add	rcx, 40	# tmp97,
	mov	rsi, rax	#, tmp95
	mov	rdi, rcx	#, tmp97
	call	_ZNSt4pairIKN2gb8graphics3GPU13Pixel_fetcher19Pixel_fetcher_stateESt8functionIFvvEEEC1IS4_ZNS3_4stepEvEUlvE0_Lb1EEEOT_OT0_	#
# GPU.cpp:426:             {Pixel_fetcher_state::get_tile_data_high, [this]() {
	.loc 16 426 35
	mov	DWORD PTR [rbp-84], 2	# D.156993,
# GPU.cpp:467:     };
	.loc 16 467 5
	mov	rax, QWORD PTR [rbp-376]	# tmp98, this
	mov	QWORD PTR [rbp-80], rax	# D.153996.__this, tmp98
	lea	rdx, [rbp-80]	# tmp99,
	lea	rax, [rbp-84]	# tmp100,
	lea	rcx, [rbp-320]	# tmp101,
	add	rcx, 80	# tmp102,
	mov	rsi, rax	#, tmp100
	mov	rdi, rcx	#, tmp102
	call	_ZNSt4pairIKN2gb8graphics3GPU13Pixel_fetcher19Pixel_fetcher_stateESt8functionIFvvEEEC1IS4_ZNS3_4stepEvEUlvE1_Lb1EEEOT_OT0_	#
# GPU.cpp:434:             {Pixel_fetcher_state::sleep, [this]() {
	.loc 16 434 35
	mov	DWORD PTR [rbp-68], 3	# D.156995,
# GPU.cpp:467:     };
	.loc 16 467 5
	mov	rax, QWORD PTR [rbp-376]	# tmp103, this
	mov	QWORD PTR [rbp-64], rax	# D.154015.__this, tmp103
	lea	rdx, [rbp-64]	# tmp104,
	lea	rax, [rbp-68]	# tmp105,
	lea	rcx, [rbp-320]	# tmp106,
	add	rcx, 120	# tmp107,
	mov	rsi, rax	#, tmp105
	mov	rdi, rcx	#, tmp107
	call	_ZNSt4pairIKN2gb8graphics3GPU13Pixel_fetcher19Pixel_fetcher_stateESt8functionIFvvEEEC1IS4_ZNS3_4stepEvEUlvE2_Lb1EEEOT_OT0_	#
# GPU.cpp:438:             {Pixel_fetcher_state::push, [this]() {
	.loc 16 438 35
	mov	DWORD PTR [rbp-52], 4	# D.156997,
# GPU.cpp:467:     };
	.loc 16 467 5
	mov	rax, QWORD PTR [rbp-376]	# tmp108, this
	mov	QWORD PTR [rbp-48], rax	# D.154048.__this, tmp108
	lea	rdx, [rbp-48]	# tmp109,
	lea	rax, [rbp-52]	# tmp110,
	lea	rcx, [rbp-320]	# tmp111,
	add	rcx, 160	# tmp112,
	mov	rsi, rax	#, tmp110
	mov	rdi, rcx	#, tmp112
	call	_ZNSt4pairIKN2gb8graphics3GPU13Pixel_fetcher19Pixel_fetcher_stateESt8functionIFvvEEEC1IS4_ZNS3_4stepEvEUlvE3_Lb1EEEOT_OT0_	#
.LEHE13:
	lea	rax, [rbp-320]	# tmp113,
	mov	r12, rax	# D.182793, tmp113
	mov	r13d, 5	# D.182793,
	lea	rax, [rbp-33]	# tmp114,
	mov	rdi, rax	#, tmp114
	call	_ZNSaISt4pairIKN2gb8graphics3GPU13Pixel_fetcher19Pixel_fetcher_stateESt8functionIFvvEEEEC1Ev	#
	lea	r8, [rbp-33]	# tmp115,
	lea	rdx, [rbp-34]	# tmp116,
	mov	rsi, r12	# tmp117, D.182793
	mov	rdi, r13	#, D.182793
	mov	rcx, r12	# tmp118, D.182793
	mov	rbx, r13	#, D.182793
	mov	rdi, rbx	# tmp120,
	lea	rax, [rbp-368]	# tmp121,
	mov	rcx, rdx	#, tmp116
	mov	rdx, rdi	#, tmp120
	mov	rdi, rax	#, tmp121
.LEHB14:
	call	_ZNSt3mapIN2gb8graphics3GPU13Pixel_fetcher19Pixel_fetcher_stateESt8functionIFvvEESt4lessIS4_ESaISt4pairIKS4_S7_EEEC1ESt16initializer_listISC_ERKS9_RKSD_	#
.LEHE14:
	lea	rax, [rbp-33]	# tmp122,
	mov	rdi, rax	#, tmp122
	call	_ZNSaISt4pairIKN2gb8graphics3GPU13Pixel_fetcher19Pixel_fetcher_stateESt8functionIFvvEEEED1Ev	#
# GPU.cpp:467:     };
	.loc 16 467 5 is_stmt 0 discriminator 6
	lea	rbx, [rbp-320]	# _3,
	add	rbx, 200	# _3,
.L306:
	lea	rax, [rbp-320]	# tmp123,
	cmp	rbx, rax	# _3, tmp123
	je	.L305	#,
# GPU.cpp:467:     };
	.loc 16 467 5
	sub	rbx, 40	# _3,
	mov	rdi, rbx	#, _3
	call	_ZNSt4pairIKN2gb8graphics3GPU13Pixel_fetcher19Pixel_fetcher_stateESt8functionIFvvEEED1Ev	#
	jmp	.L306	#
.L305:
# GPU.cpp:468:     state_map[fetcher_state_]();
	.loc 16 468 15 is_stmt 1
	mov	rdx, QWORD PTR [rbp-376]	# _1, this
# GPU.cpp:468:     state_map[fetcher_state_]();
	.loc 16 468 29
	lea	rax, [rbp-368]	# tmp124,
	mov	rsi, rdx	#, _1
	mov	rdi, rax	#, tmp124
.LEHB15:
	call	_ZNSt3mapIN2gb8graphics3GPU13Pixel_fetcher19Pixel_fetcher_stateESt8functionIFvvEESt4lessIS4_ESaISt4pairIKS4_S7_EEEixERSB_	#
# GPU.cpp:468:     state_map[fetcher_state_]();
	.loc 16 468 30
	mov	rdi, rax	#, _2
	call	_ZNKSt8functionIFvvEEclEv	#
.LEHE15:
# GPU.cpp:469: }
	.loc 16 469 1
	lea	rax, [rbp-368]	# tmp125,
	mov	rdi, rax	#, tmp125
	call	_ZNSt3mapIN2gb8graphics3GPU13Pixel_fetcher19Pixel_fetcher_stateESt8functionIFvvEESt4lessIS4_ESaISt4pairIKS4_S7_EEED1Ev	#
	jmp	.L313	#
.L311:
	mov	rbx, rax	# tmp128,
	lea	rax, [rbp-33]	# tmp126,
	mov	rdi, rax	#, tmp126
	call	_ZNSaISt4pairIKN2gb8graphics3GPU13Pixel_fetcher19Pixel_fetcher_stateESt8functionIFvvEEEED1Ev	#
	mov	r12, rbx	# tmp127, tmp128
# GPU.cpp:467:     };
	.loc 16 467 5
	lea	rbx, [rbp-320]	# _4,
	add	rbx, 200	# _4,
.L309:
	lea	rax, [rbp-320]	# tmp131,
	cmp	rbx, rax	# _4, tmp131
	je	.L308	#,
	sub	rbx, 40	# _4,
	mov	rdi, rbx	#, _4
	call	_ZNSt4pairIKN2gb8graphics3GPU13Pixel_fetcher19Pixel_fetcher_stateESt8functionIFvvEEED1Ev	#
	jmp	.L309	#
.L308:
	mov	rax, r12	# D.184498, tmp127
	mov	rdi, rax	#, D.184498
.LEHB16:
	call	_Unwind_Resume	#
.L312:
# GPU.cpp:469: }
	.loc 16 469 1
	mov	rbx, rax	# tmp133,
	lea	rax, [rbp-368]	# tmp132,
	mov	rdi, rax	#, tmp132
	call	_ZNSt3mapIN2gb8graphics3GPU13Pixel_fetcher19Pixel_fetcher_stateESt8functionIFvvEESt4lessIS4_ESaISt4pairIKS4_S7_EEED1Ev	#
	mov	rax, rbx	# D.184499, tmp133
	mov	rdi, rax	#, D.184499
	call	_Unwind_Resume	#
.LEHE16:
.L313:
	add	rsp, 360	#,
	pop	rbx	#
	pop	r12	#
	pop	r13	#
	pop	rbp	#
	.cfi_def_cfa 7, 8
	ret	
	.cfi_endproc
.LFE6152:
	.section	.gcc_except_table
.LLSDA6152:
	.byte	0xff
	.byte	0xff
	.byte	0x1
	.uleb128 .LLSDACSE6152-.LLSDACSB6152
.LLSDACSB6152:
	.uleb128 .LEHB13-.LFB6152
	.uleb128 .LEHE13-.LEHB13
	.uleb128 0
	.uleb128 0
	.uleb128 .LEHB14-.LFB6152
	.uleb128 .LEHE14-.LEHB14
	.uleb128 .L311-.LFB6152
	.uleb128 0
	.uleb128 .LEHB15-.LFB6152
	.uleb128 .LEHE15-.LEHB15
	.uleb128 .L312-.LFB6152
	.uleb128 0
	.uleb128 .LEHB16-.LFB6152
	.uleb128 .LEHE16-.LEHB16
	.uleb128 0
	.uleb128 0
.LLSDACSE6152:
	.text
	.size	_ZN2gb8graphics3GPU13Pixel_fetcher4stepEv, .-_ZN2gb8graphics3GPU13Pixel_fetcher4stepEv
	.align 2
	.globl	_ZN2gb8graphics3GPU13Pixel_fetcher5resetEhhb
	.type	_ZN2gb8graphics3GPU13Pixel_fetcher5resetEhhb, @function
_ZN2gb8graphics3GPU13Pixel_fetcher5resetEhhb:
.LFB6208:
	.loc 16 471 83
	.cfi_startproc
	push	rbp	#
	.cfi_def_cfa_offset 16
	.cfi_offset 6, -16
	mov	rbp, rsp	#,
	.cfi_def_cfa_register 6
	mov	QWORD PTR [rbp-24], rdi	# this, this
	mov	eax, ecx	# tmp107, r_window
	mov	ecx, esi	# tmp104, tmp103
	mov	BYTE PTR [rbp-28], cl	# x, tmp104
	mov	BYTE PTR [rbp-32], dl	# y, tmp106
	mov	BYTE PTR [rbp-36], al	# r_window, tmp108
# GPU.cpp:472:     fetcher_state_ = Pixel_fetcher_state::get_tile;
	.loc 16 472 20
	mov	rax, QWORD PTR [rbp-24]	# tmp109, this
	mov	DWORD PTR [rax], 0	# this_23(D)->fetcher_state_,
# GPU.cpp:473:     tile_index_ = 0;
	.loc 16 473 17
	mov	rax, QWORD PTR [rbp-24]	# tmp110, this
	mov	DWORD PTR [rax+8], 0	# this_23(D)->tile_index_,
# GPU.cpp:474:     dot_clock_divider_ = 0;
	.loc 16 474 24
	mov	rax, QWORD PTR [rbp-24]	# tmp111, this
	mov	DWORD PTR [rax+20], 0	# this_23(D)->dot_clock_divider_,
# GPU.cpp:476:     uint16_t wTileMap = (g.mLCDC.window_tile_map) ? 0x1C00 : 0x1800;
	.loc 16 476 26
	mov	rax, QWORD PTR [rbp-24]	# tmp112, this
	mov	rax, QWORD PTR [rax+40]	# _1, this_23(D)->g
# GPU.cpp:476:     uint16_t wTileMap = (g.mLCDC.window_tile_map) ? 0x1C00 : 0x1800;
	.loc 16 476 34
	movzx	eax, BYTE PTR [rax+92257]	# _2, _1->mLCDC.D.75647
	and	eax, 64	# _3,
# GPU.cpp:476:     uint16_t wTileMap = (g.mLCDC.window_tile_map) ? 0x1C00 : 0x1800;
	.loc 16 476 14
	test	al, al	# _3
	je	.L315	#,
# GPU.cpp:476:     uint16_t wTileMap = (g.mLCDC.window_tile_map) ? 0x1C00 : 0x1800;
	.loc 16 476 14 is_stmt 0 discriminator 1
	mov	eax, 7168	# iftmp.150_18,
	jmp	.L316	#
.L315:
# GPU.cpp:476:     uint16_t wTileMap = (g.mLCDC.window_tile_map) ? 0x1C00 : 0x1800;
	.loc 16 476 14 discriminator 2
	mov	eax, 6144	# iftmp.150_18,
.L316:
# GPU.cpp:476:     uint16_t wTileMap = (g.mLCDC.window_tile_map) ? 0x1C00 : 0x1800;
	.loc 16 476 14 discriminator 4
	mov	WORD PTR [rbp-2], ax	# wTileMap, iftmp.150_18
# GPU.cpp:477:     uint16_t bgTileMap = (g.mLCDC.bg_tile_map) ? 0x1C00 : 0x1800;
	.loc 16 477 27 is_stmt 1 discriminator 4
	mov	rax, QWORD PTR [rbp-24]	# tmp113, this
	mov	rax, QWORD PTR [rax+40]	# _4, this_23(D)->g
# GPU.cpp:477:     uint16_t bgTileMap = (g.mLCDC.bg_tile_map) ? 0x1C00 : 0x1800;
	.loc 16 477 35 discriminator 4
	movzx	eax, BYTE PTR [rax+92257]	# _5, _4->mLCDC.D.75647
	and	eax, 8	# _6,
# GPU.cpp:477:     uint16_t bgTileMap = (g.mLCDC.bg_tile_map) ? 0x1C00 : 0x1800;
	.loc 16 477 14 discriminator 4
	test	al, al	# _6
	je	.L317	#,
# GPU.cpp:477:     uint16_t bgTileMap = (g.mLCDC.bg_tile_map) ? 0x1C00 : 0x1800;
	.loc 16 477 14 is_stmt 0 discriminator 1
	mov	eax, 7168	# iftmp.151_19,
	jmp	.L318	#
.L317:
# GPU.cpp:477:     uint16_t bgTileMap = (g.mLCDC.bg_tile_map) ? 0x1C00 : 0x1800;
	.loc 16 477 14 discriminator 2
	mov	eax, 6144	# iftmp.151_19,
.L318:
# GPU.cpp:477:     uint16_t bgTileMap = (g.mLCDC.bg_tile_map) ? 0x1C00 : 0x1800;
	.loc 16 477 14 discriminator 4
	mov	WORD PTR [rbp-4], ax	# bgTileMap, iftmp.151_19
# GPU.cpp:479:     tile_y = y & 7;
	.loc 16 479 16 is_stmt 1 discriminator 4
	movzx	eax, BYTE PTR [rbp-32]	# _7, y
	and	eax, 7	# _7,
	mov	edx, eax	# _8, _7
# GPU.cpp:479:     tile_y = y & 7;
	.loc 16 479 12 discriminator 4
	mov	rax, QWORD PTR [rbp-24]	# tmp114, this
	mov	DWORD PTR [rax+28], edx	# this_23(D)->tile_y, _8
# GPU.cpp:480:     tile_row_index_ = x >> 3;
	.loc 16 480 25 discriminator 4
	movzx	eax, BYTE PTR [rbp-28]	# tmp115, x
	shr	al, 3	# _9,
	movzx	edx, al	# _10, _9
# GPU.cpp:480:     tile_row_index_ = x >> 3;
	.loc 16 480 21 discriminator 4
	mov	rax, QWORD PTR [rbp-24]	# tmp116, this
	mov	WORD PTR [rax+4], dx	# this_23(D)->tile_row_index_, _10
# GPU.cpp:481:     scroll_pixels = r_window ? 0 : (g.mScrollX & 7);
	.loc 16 481 30 discriminator 4
	cmp	BYTE PTR [rbp-36], 0	# r_window,
	je	.L319	#,
# GPU.cpp:481:     scroll_pixels = r_window ? 0 : (g.mScrollX & 7);
	.loc 16 481 30 is_stmt 0 discriminator 1
	mov	edx, 0	# iftmp.152_20,
	jmp	.L320	#
.L319:
# GPU.cpp:481:     scroll_pixels = r_window ? 0 : (g.mScrollX & 7);
	.loc 16 481 37 is_stmt 1 discriminator 2
	mov	rax, QWORD PTR [rbp-24]	# tmp117, this
	mov	rax, QWORD PTR [rax+40]	# _11, this_23(D)->g
# GPU.cpp:481:     scroll_pixels = r_window ? 0 : (g.mScrollX & 7);
	.loc 16 481 39 discriminator 2
	movzx	eax, BYTE PTR [rax+92259]	# _12, _11->mScrollX
# GPU.cpp:481:     scroll_pixels = r_window ? 0 : (g.mScrollX & 7);
	.loc 16 481 48 discriminator 2
	movzx	eax, al	# _13, _12
# GPU.cpp:481:     scroll_pixels = r_window ? 0 : (g.mScrollX & 7);
	.loc 16 481 30 discriminator 2
	and	eax, 7	# _13,
	mov	edx, eax	# iftmp.152_20, _13
.L320:
# GPU.cpp:481:     scroll_pixels = r_window ? 0 : (g.mScrollX & 7);
	.loc 16 481 19 discriminator 4
	mov	rax, QWORD PTR [rbp-24]	# tmp118, this
	mov	DWORD PTR [rax+32], edx	# this_23(D)->scroll_pixels, iftmp.152_20
# GPU.cpp:482:     tile_row_addr_ = (r_window ? wTileMap : bgTileMap) + ((y >> 3) << 5);
	.loc 16 482 56 discriminator 4
	cmp	BYTE PTR [rbp-36], 0	# r_window,
	je	.L321	#,
# GPU.cpp:482:     tile_row_addr_ = (r_window ? wTileMap : bgTileMap) + ((y >> 3) << 5);
	.loc 16 482 56 is_stmt 0 discriminator 1
	movzx	eax, WORD PTR [rbp-2]	# iftmp.153_21, wTileMap
	jmp	.L322	#
.L321:
# GPU.cpp:482:     tile_row_addr_ = (r_window ? wTileMap : bgTileMap) + ((y >> 3) << 5);
	.loc 16 482 56 discriminator 2
	movzx	eax, WORD PTR [rbp-4]	# iftmp.153_21, bgTileMap
.L322:
# GPU.cpp:482:     tile_row_addr_ = (r_window ? wTileMap : bgTileMap) + ((y >> 3) << 5);
	.loc 16 482 62 is_stmt 1 discriminator 4
	movzx	edx, BYTE PTR [rbp-32]	# tmp119, y
	shr	dl, 3	# _14,
	movzx	edx, dl	# _15, _14
# GPU.cpp:482:     tile_row_addr_ = (r_window ? wTileMap : bgTileMap) + ((y >> 3) << 5);
	.loc 16 482 68 discriminator 4
	sal	edx, 5	# _16,
# GPU.cpp:482:     tile_row_addr_ = (r_window ? wTileMap : bgTileMap) + ((y >> 3) << 5);
	.loc 16 482 56 discriminator 4
	add	edx, eax	# _17, iftmp.153_21
# GPU.cpp:482:     tile_row_addr_ = (r_window ? wTileMap : bgTileMap) + ((y >> 3) << 5);
	.loc 16 482 20 discriminator 4
	mov	rax, QWORD PTR [rbp-24]	# tmp120, this
	mov	WORD PTR [rax+24], dx	# this_23(D)->tile_row_addr_, _17
# GPU.cpp:483:     rendering_sprites = false;
	.loc 16 483 23 discriminator 4
	mov	rax, QWORD PTR [rbp-24]	# tmp121, this
	mov	BYTE PTR [rax+48], 0	# this_23(D)->rendering_sprites,
# GPU.cpp:484: }
	.loc 16 484 1 discriminator 4
	nop	
	pop	rbp	#
	.cfi_def_cfa 7, 8
	ret	
	.cfi_endproc
.LFE6208:
	.size	_ZN2gb8graphics3GPU13Pixel_fetcher5resetEhhb, .-_ZN2gb8graphics3GPU13Pixel_fetcher5resetEhhb
	.align 2
	.globl	_ZN2gb8graphics3GPU13Pixel_fetcher18start_sprite_fetchER6spriteh
	.type	_ZN2gb8graphics3GPU13Pixel_fetcher18start_sprite_fetchER6spriteh, @function
_ZN2gb8graphics3GPU13Pixel_fetcher18start_sprite_fetchER6spriteh:
.LFB6209:
	.loc 16 486 81
	.cfi_startproc
	push	rbp	#
	.cfi_def_cfa_offset 16
	.cfi_offset 6, -16
	mov	rbp, rsp	#,
	.cfi_def_cfa_register 6
	mov	QWORD PTR [rbp-8], rdi	# this, this
	mov	QWORD PTR [rbp-16], rsi	# s, s
	mov	eax, edx	# tmp117, y
	mov	BYTE PTR [rbp-20], al	# y, tmp118
# GPU.cpp:487:     fetcher_state_ = Pixel_fetcher_state::get_tile;
	.loc 16 487 20
	mov	rax, QWORD PTR [rbp-8]	# tmp119, this
	mov	DWORD PTR [rax], 0	# this_39(D)->fetcher_state_,
# GPU.cpp:488:     sprite_tile_index_ = g.mLCDC.obj_size ? (s.tile_location & 0xFE) : s.tile_location;
	.loc 16 488 26
	mov	rax, QWORD PTR [rbp-8]	# tmp120, this
	mov	rax, QWORD PTR [rax+40]	# _1, this_39(D)->g
# GPU.cpp:488:     sprite_tile_index_ = g.mLCDC.obj_size ? (s.tile_location & 0xFE) : s.tile_location;
	.loc 16 488 34
	movzx	eax, BYTE PTR [rax+92257]	# _2, _1->mLCDC.D.75647
	and	eax, 4	# _3,
# GPU.cpp:488:     sprite_tile_index_ = g.mLCDC.obj_size ? (s.tile_location & 0xFE) : s.tile_location;
	.loc 16 488 24
	test	al, al	# _3
	je	.L324	#,
# GPU.cpp:488:     sprite_tile_index_ = g.mLCDC.obj_size ? (s.tile_location & 0xFE) : s.tile_location;
	.loc 16 488 48 discriminator 1
	mov	rax, QWORD PTR [rbp-16]	# tmp121, s
	movzx	eax, BYTE PTR [rax+3]	# _4, s_41(D)->tile_location
# GPU.cpp:488:     sprite_tile_index_ = g.mLCDC.obj_size ? (s.tile_location & 0xFE) : s.tile_location;
	.loc 16 488 24 discriminator 1
	and	eax, -2	# iftmp.154_35,
	jmp	.L325	#
.L324:
# GPU.cpp:488:     sprite_tile_index_ = g.mLCDC.obj_size ? (s.tile_location & 0xFE) : s.tile_location;
	.loc 16 488 24 is_stmt 0 discriminator 2
	mov	rax, QWORD PTR [rbp-16]	# tmp122, s
	movzx	eax, BYTE PTR [rax+3]	# iftmp.154_35, s_41(D)->tile_location
.L325:
# GPU.cpp:488:     sprite_tile_index_ = g.mLCDC.obj_size ? (s.tile_location & 0xFE) : s.tile_location;
	.loc 16 488 24 discriminator 4
	mov	rdx, QWORD PTR [rbp-8]	# tmp123, this
	mov	BYTE PTR [rdx+12], al	# this_39(D)->sprite_tile_index_, iftmp.154_35
# GPU.cpp:489:     if ( g.mLCDC.obj_size && y >= s.y - 16 ) {
	.loc 16 489 10 is_stmt 1 discriminator 4
	mov	rax, QWORD PTR [rbp-8]	# tmp124, this
	mov	rax, QWORD PTR [rax+40]	# _5, this_39(D)->g
# GPU.cpp:489:     if ( g.mLCDC.obj_size && y >= s.y - 16 ) {
	.loc 16 489 18 discriminator 4
	movzx	eax, BYTE PTR [rax+92257]	# _6, _5->mLCDC.D.75647
	and	eax, 4	# _7,
# GPU.cpp:489:     if ( g.mLCDC.obj_size && y >= s.y - 16 ) {
	.loc 16 489 5 discriminator 4
	test	al, al	# _7
	je	.L326	#,
# GPU.cpp:489:     if ( g.mLCDC.obj_size && y >= s.y - 16 ) {
	.loc 16 489 30 discriminator 1
	movzx	edx, BYTE PTR [rbp-20]	# _8, y
# GPU.cpp:489:     if ( g.mLCDC.obj_size && y >= s.y - 16 ) {
	.loc 16 489 37 discriminator 1
	mov	rax, QWORD PTR [rbp-16]	# tmp125, s
	movzx	eax, BYTE PTR [rax+1]	# _9, s_41(D)->y
	movzx	eax, al	# _10, _9
# GPU.cpp:489:     if ( g.mLCDC.obj_size && y >= s.y - 16 ) {
	.loc 16 489 39 discriminator 1
	sub	eax, 16	# _11,
# GPU.cpp:489:     if ( g.mLCDC.obj_size && y >= s.y - 16 ) {
	.loc 16 489 27 discriminator 1
	cmp	edx, eax	# _8, _11
	jl	.L326	#,
# GPU.cpp:490:         sprite_tile_index_ |= 1;
	.loc 16 490 28
	mov	rax, QWORD PTR [rbp-8]	# tmp126, this
	movzx	eax, BYTE PTR [rax+12]	# _12, this_39(D)->sprite_tile_index_
	or	eax, 1	# _12,
	mov	edx, eax	# _13, _12
	mov	rax, QWORD PTR [rbp-8]	# tmp127, this
	mov	BYTE PTR [rax+12], dl	# this_39(D)->sprite_tile_index_, _13
.L326:
# GPU.cpp:492:     sprite_tile_y = (y - s.y) & 7;
	.loc 16 492 28
	mov	rax, QWORD PTR [rbp-16]	# tmp128, s
	movzx	edx, BYTE PTR [rax+1]	# _14, s_41(D)->y
# GPU.cpp:492:     sprite_tile_y = (y - s.y) & 7;
	.loc 16 492 31
	movzx	eax, BYTE PTR [rbp-20]	# tmp129, y
	sub	eax, edx	# _15, _14
	movzx	eax, al	# _16, _15
	and	eax, 7	# _16,
	mov	edx, eax	# _17, _16
# GPU.cpp:492:     sprite_tile_y = (y - s.y) & 7;
	.loc 16 492 19
	mov	rax, QWORD PTR [rbp-8]	# tmp130, this
	mov	DWORD PTR [rax+16], edx	# this_39(D)->sprite_tile_y, _17
# GPU.cpp:493:     dot_clock_divider_ = 0;
	.loc 16 493 24
	mov	rax, QWORD PTR [rbp-8]	# tmp131, this
	mov	DWORD PTR [rax+20], 0	# this_39(D)->dot_clock_divider_,
# GPU.cpp:495:     if ( (s.attributes >> 6) & 1 ) {
	.loc 16 495 13
	mov	rax, QWORD PTR [rbp-16]	# tmp132, s
	movzx	eax, BYTE PTR [rax+4]	# _18, s_41(D)->attributes
# GPU.cpp:495:     if ( (s.attributes >> 6) & 1 ) {
	.loc 16 495 24
	shr	al, 6	# _19,
# GPU.cpp:495:     if ( (s.attributes >> 6) & 1 ) {
	.loc 16 495 30
	movzx	eax, al	# _20, _19
	and	eax, 1	# _21,
# GPU.cpp:495:     if ( (s.attributes >> 6) & 1 ) {
	.loc 16 495 5
	test	eax, eax	# _21
	je	.L327	#,
# GPU.cpp:496:         sprite_tile_y = 7 - sprite_tile_y;
	.loc 16 496 29
	mov	rax, QWORD PTR [rbp-8]	# tmp133, this
	mov	eax, DWORD PTR [rax+16]	# _22, this_39(D)->sprite_tile_y
# GPU.cpp:496:         sprite_tile_y = 7 - sprite_tile_y;
	.loc 16 496 27
	mov	edx, 7	# tmp134,
	sub	edx, eax	# _23, _22
# GPU.cpp:496:         sprite_tile_y = 7 - sprite_tile_y;
	.loc 16 496 23
	mov	rax, QWORD PTR [rbp-8]	# tmp135, this
	mov	DWORD PTR [rax+16], edx	# this_39(D)->sprite_tile_y, _23
# GPU.cpp:497:         if ( g.mLCDC.obj_size ) {
	.loc 16 497 14
	mov	rax, QWORD PTR [rbp-8]	# tmp136, this
	mov	rax, QWORD PTR [rax+40]	# _24, this_39(D)->g
# GPU.cpp:497:         if ( g.mLCDC.obj_size ) {
	.loc 16 497 22
	movzx	eax, BYTE PTR [rax+92257]	# _25, _24->mLCDC.D.75647
	and	eax, 4	# _26,
# GPU.cpp:497:         if ( g.mLCDC.obj_size ) {
	.loc 16 497 9
	test	al, al	# _26
	je	.L327	#,
# GPU.cpp:498:             if ( y >= s.y - 16 )
	.loc 16 498 18
	movzx	edx, BYTE PTR [rbp-20]	# _27, y
# GPU.cpp:498:             if ( y >= s.y - 16 )
	.loc 16 498 25
	mov	rax, QWORD PTR [rbp-16]	# tmp137, s
	movzx	eax, BYTE PTR [rax+1]	# _28, s_41(D)->y
	movzx	eax, al	# _29, _28
# GPU.cpp:498:             if ( y >= s.y - 16 )
	.loc 16 498 27
	sub	eax, 16	# _30,
# GPU.cpp:498:             if ( y >= s.y - 16 )
	.loc 16 498 13
	cmp	edx, eax	# _27, _30
	jl	.L328	#,
# GPU.cpp:499:                 sprite_tile_index_ &= 0xFE;
	.loc 16 499 36
	mov	rax, QWORD PTR [rbp-8]	# tmp138, this
	movzx	eax, BYTE PTR [rax+12]	# _31, this_39(D)->sprite_tile_index_
	and	eax, -2	# _31,
	mov	edx, eax	# _32, _31
	mov	rax, QWORD PTR [rbp-8]	# tmp139, this
	mov	BYTE PTR [rax+12], dl	# this_39(D)->sprite_tile_index_, _32
	jmp	.L327	#
.L328:
# GPU.cpp:501:                 sprite_tile_index_ |= 1;
	.loc 16 501 36
	mov	rax, QWORD PTR [rbp-8]	# tmp140, this
	movzx	eax, BYTE PTR [rax+12]	# _33, this_39(D)->sprite_tile_index_
	or	eax, 1	# _33,
	mov	edx, eax	# _34, _33
	mov	rax, QWORD PTR [rbp-8]	# tmp141, this
	mov	BYTE PTR [rax+12], dl	# this_39(D)->sprite_tile_index_, _34
.L327:
# GPU.cpp:504:     rendering_sprites = true;
	.loc 16 504 23
	mov	rax, QWORD PTR [rbp-8]	# tmp142, this
	mov	BYTE PTR [rax+48], 1	# this_39(D)->rendering_sprites,
# GPU.cpp:505:     spr = s;
	.loc 16 505 9
	mov	rax, QWORD PTR [rbp-8]	# tmp143, this
	mov	rdx, QWORD PTR [rbp-16]	# tmp144, s
	mov	ecx, DWORD PTR [rdx]	# tmp145, MEM[(const struct sprite &)s_41(D)]
	mov	DWORD PTR [rax+49], ecx	# this_39(D)->spr, tmp145
	movzx	edx, WORD PTR [rdx+4]	# tmp146, MEM[(const struct sprite &)s_41(D)]
	mov	WORD PTR [rax+53], dx	# this_39(D)->spr, tmp146
# GPU.cpp:506: }
	.loc 16 506 1
	nop	
	pop	rbp	#
	.cfi_def_cfa 7, 8
	ret	
	.cfi_endproc
.LFE6209:
	.size	_ZN2gb8graphics3GPU13Pixel_fetcher18start_sprite_fetchER6spriteh, .-_ZN2gb8graphics3GPU13Pixel_fetcher18start_sprite_fetchER6spriteh
	.section	.text._ZN9__gnu_cxx11char_traitsIcE2eqERKcS3_,"axG",@progbits,_ZN9__gnu_cxx11char_traitsIcE2eqERKcS3_,comdat
	.weak	_ZN9__gnu_cxx11char_traitsIcE2eqERKcS3_
	.type	_ZN9__gnu_cxx11char_traitsIcE2eqERKcS3_, @function
_ZN9__gnu_cxx11char_traitsIcE2eqERKcS3_:
.LFB6211:
	.loc 2 106 7
	.cfi_startproc
	push	rbp	#
	.cfi_def_cfa_offset 16
	.cfi_offset 6, -16
	mov	rbp, rsp	#,
	.cfi_def_cfa_register 6
	mov	QWORD PTR [rbp-8], rdi	# __c1, __c1
	mov	QWORD PTR [rbp-16], rsi	# __c2, __c2
# /usr/include/c++/11/bits/char_traits.h:107:       { return __c1 == __c2; }
	.loc 2 107 21
	mov	rax, QWORD PTR [rbp-8]	# tmp86, __c1
	movzx	edx, BYTE PTR [rax]	# _1, *__c1_4(D)
	mov	rax, QWORD PTR [rbp-16]	# tmp87, __c2
	movzx	eax, BYTE PTR [rax]	# _2, *__c2_5(D)
# /usr/include/c++/11/bits/char_traits.h:107:       { return __c1 == __c2; }
	.loc 2 107 24
	cmp	dl, al	# _1, _2
	sete	al	#, _6
# /usr/include/c++/11/bits/char_traits.h:107:       { return __c1 == __c2; }
	.loc 2 107 30
	pop	rbp	#
	.cfi_def_cfa 7, 8
	ret	
	.cfi_endproc
.LFE6211:
	.size	_ZN9__gnu_cxx11char_traitsIcE2eqERKcS3_, .-_ZN9__gnu_cxx11char_traitsIcE2eqERKcS3_
	.section	.text._ZN9__gnu_cxx11char_traitsIcE6lengthEPKc,"axG",@progbits,_ZN9__gnu_cxx11char_traitsIcE6lengthEPKc,comdat
	.align 2
	.weak	_ZN9__gnu_cxx11char_traitsIcE6lengthEPKc
	.type	_ZN9__gnu_cxx11char_traitsIcE6lengthEPKc, @function
_ZN9__gnu_cxx11char_traitsIcE6lengthEPKc:
.LFB6210:
	.loc 2 167 5
	.cfi_startproc
	push	rbp	#
	.cfi_def_cfa_offset 16
	.cfi_offset 6, -16
	mov	rbp, rsp	#,
	.cfi_def_cfa_register 6
	sub	rsp, 32	#,
	mov	QWORD PTR [rbp-24], rdi	# __p, __p
# /usr/include/c++/11/bits/char_traits.h:170:       std::size_t __i = 0;
	.loc 2 170 19
	mov	QWORD PTR [rbp-8], 0	# __i,
# /usr/include/c++/11/bits/char_traits.h:171:       while (!eq(__p[__i], char_type()))
	.loc 2 171 7
	jmp	.L332	#
.L333:
# /usr/include/c++/11/bits/char_traits.h:172:         ++__i;
	.loc 2 172 9
	add	QWORD PTR [rbp-8], 1	# __i,
